SF:/Users/shutoide/Developer/lazy-image/src/codecs/avif_safe.rs
FN:256,_RNvXs1_NtNtCs2c7XeETP86L_10lazy_image6codecs9avif_safeNtB5_15SafeAvifEncoderNtNtNtCsaTRkahAGrLL_4core3ops4drop4Drop4drop
FN:312,_RNvXs3_NtNtCs2c7XeETP86L_10lazy_image6codecs9avif_safeNtB5_14SafeAvifRwDataNtNtNtCsaTRkahAGrLL_4core3ops4drop4Drop4drop
FN:152,_RNvXs_NtNtCs2c7XeETP86L_10lazy_image6codecs9avif_safeNtB4_13SafeAvifImageNtNtNtCsaTRkahAGrLL_4core3ops4drop4Drop4drop
FN:146,_RNvMNtNtCs2c7XeETP86L_10lazy_image6codecs9avif_safeNtB2_13SafeAvifImage10as_mut_ptr
FN:104,_RNvMNtNtCs2c7XeETP86L_10lazy_image6codecs9avif_safeNtB2_13SafeAvifImage10rgb_to_yuv
FN:86,_RNvMNtNtCs2c7XeETP86L_10lazy_image6codecs9avif_safeNtB2_13SafeAvifImage15allocate_planes
FN:121,_RNvMNtNtCs2c7XeETP86L_10lazy_image6codecs9avif_safeNtB2_13SafeAvifImage15alpha_plane_mut
FN:126,_RNvMNtNtCs2c7XeETP86L_10lazy_image6codecs9avif_safeNtB2_13SafeAvifImage15alpha_row_bytes
FN:66,_RNvMNtNtCs2c7XeETP86L_10lazy_image6codecs9avif_safeNtB2_13SafeAvifImage15set_icc_profile
FN:44,_RNvMNtNtCs2c7XeETP86L_10lazy_image6codecs9avif_safeNtB2_13SafeAvifImage20set_color_properties
FN:27,_RNvMNtNtCs2c7XeETP86L_10lazy_image6codecs9avif_safeNtB2_13SafeAvifImage3new
FN:136,_RNvMNtNtCs2c7XeETP86L_10lazy_image6codecs9avif_safeNtB2_13SafeAvifImage6as_ptr
FN:171,_RNvMs0_NtNtCs2c7XeETP86L_10lazy_image6codecs9avif_safeNtB5_15SafeAvifEncoder3new
FN:243,_RNvMs0_NtNtCs2c7XeETP86L_10lazy_image6codecs9avif_safeNtB5_15SafeAvifEncoder6finish
FN:213,_RNvMs0_NtNtCs2c7XeETP86L_10lazy_image6codecs9avif_safeNtB5_15SafeAvifEncoder9add_image
FN:189,_RNvMs0_NtNtCs2c7XeETP86L_10lazy_image6codecs9avif_safeNtB5_15SafeAvifEncoder9configure
FN:306,_RNvMs2_NtNtCs2c7XeETP86L_10lazy_image6codecs9avif_safeNtB5_14SafeAvifRwData10as_mut_ptr
FN:272,_RNvMs2_NtNtCs2c7XeETP86L_10lazy_image6codecs9avif_safeNtB5_14SafeAvifRwData3new
FN:296,_RNvMs2_NtNtCs2c7XeETP86L_10lazy_image6codecs9avif_safeNtB5_14SafeAvifRwData6to_vec
FN:282,_RNvMs2_NtNtCs2c7XeETP86L_10lazy_image6codecs9avif_safeNtB5_14SafeAvifRwData8as_slice
FN:327,_RNvNtNtCs2c7XeETP86L_10lazy_image6codecs9avif_safe16create_rgb_image
FN:320,_RNvXs4_NtNtCs2c7XeETP86L_10lazy_image6codecs9avif_safeNtB5_14SafeAvifRwDataNtNtCsaTRkahAGrLL_4core7default7Default7default
FN:256,_RNvXs1_NtNtCs7xzLeE8dEzx_10lazy_image6codecs9avif_safeNtB5_15SafeAvifEncoderNtNtNtCsaTRkahAGrLL_4core3ops4drop4Drop4drop
FN:312,_RNvXs3_NtNtCs7xzLeE8dEzx_10lazy_image6codecs9avif_safeNtB5_14SafeAvifRwDataNtNtNtCsaTRkahAGrLL_4core3ops4drop4Drop4drop
FN:152,_RNvXs_NtNtCs7xzLeE8dEzx_10lazy_image6codecs9avif_safeNtB4_13SafeAvifImageNtNtNtCsaTRkahAGrLL_4core3ops4drop4Drop4drop
FN:136,_RNvMNtNtCs7xzLeE8dEzx_10lazy_image6codecs9avif_safeNtB2_13SafeAvifImage6as_ptr
FN:320,_RNvXs4_NtNtCs7xzLeE8dEzx_10lazy_image6codecs9avif_safeNtB5_14SafeAvifRwDataNtNtCsaTRkahAGrLL_4core7default7Default7default
FN:146,_RNvMNtNtCs7xzLeE8dEzx_10lazy_image6codecs9avif_safeNtB2_13SafeAvifImage10as_mut_ptr
FN:104,_RNvMNtNtCs7xzLeE8dEzx_10lazy_image6codecs9avif_safeNtB2_13SafeAvifImage10rgb_to_yuv
FN:86,_RNvMNtNtCs7xzLeE8dEzx_10lazy_image6codecs9avif_safeNtB2_13SafeAvifImage15allocate_planes
FN:121,_RNvMNtNtCs7xzLeE8dEzx_10lazy_image6codecs9avif_safeNtB2_13SafeAvifImage15alpha_plane_mut
FN:126,_RNvMNtNtCs7xzLeE8dEzx_10lazy_image6codecs9avif_safeNtB2_13SafeAvifImage15alpha_row_bytes
FN:66,_RNvMNtNtCs7xzLeE8dEzx_10lazy_image6codecs9avif_safeNtB2_13SafeAvifImage15set_icc_profile
FN:44,_RNvMNtNtCs7xzLeE8dEzx_10lazy_image6codecs9avif_safeNtB2_13SafeAvifImage20set_color_properties
FN:27,_RNvMNtNtCs7xzLeE8dEzx_10lazy_image6codecs9avif_safeNtB2_13SafeAvifImage3new
FN:171,_RNvMs0_NtNtCs7xzLeE8dEzx_10lazy_image6codecs9avif_safeNtB5_15SafeAvifEncoder3new
FN:243,_RNvMs0_NtNtCs7xzLeE8dEzx_10lazy_image6codecs9avif_safeNtB5_15SafeAvifEncoder6finish
FN:213,_RNvMs0_NtNtCs7xzLeE8dEzx_10lazy_image6codecs9avif_safeNtB5_15SafeAvifEncoder9add_image
FN:189,_RNvMs0_NtNtCs7xzLeE8dEzx_10lazy_image6codecs9avif_safeNtB5_15SafeAvifEncoder9configure
FN:306,_RNvMs2_NtNtCs7xzLeE8dEzx_10lazy_image6codecs9avif_safeNtB5_14SafeAvifRwData10as_mut_ptr
FN:272,_RNvMs2_NtNtCs7xzLeE8dEzx_10lazy_image6codecs9avif_safeNtB5_14SafeAvifRwData3new
FN:296,_RNvMs2_NtNtCs7xzLeE8dEzx_10lazy_image6codecs9avif_safeNtB5_14SafeAvifRwData6to_vec
FN:282,_RNvMs2_NtNtCs7xzLeE8dEzx_10lazy_image6codecs9avif_safeNtB5_14SafeAvifRwData8as_slice
FN:327,_RNvNtNtCs7xzLeE8dEzx_10lazy_image6codecs9avif_safe16create_rgb_image
FNDA:3,_RNvXs1_NtNtCs2c7XeETP86L_10lazy_image6codecs9avif_safeNtB5_15SafeAvifEncoderNtNtNtCsaTRkahAGrLL_4core3ops4drop4Drop4drop
FNDA:3,_RNvXs3_NtNtCs2c7XeETP86L_10lazy_image6codecs9avif_safeNtB5_14SafeAvifRwDataNtNtNtCsaTRkahAGrLL_4core3ops4drop4Drop4drop
FNDA:3,_RNvXs_NtNtCs2c7XeETP86L_10lazy_image6codecs9avif_safeNtB4_13SafeAvifImageNtNtNtCsaTRkahAGrLL_4core3ops4drop4Drop4drop
FNDA:6,_RNvMNtNtCs2c7XeETP86L_10lazy_image6codecs9avif_safeNtB2_13SafeAvifImage10as_mut_ptr
FNDA:3,_RNvMNtNtCs2c7XeETP86L_10lazy_image6codecs9avif_safeNtB2_13SafeAvifImage10rgb_to_yuv
FNDA:3,_RNvMNtNtCs2c7XeETP86L_10lazy_image6codecs9avif_safeNtB2_13SafeAvifImage15allocate_planes
FNDA:0,_RNvMNtNtCs2c7XeETP86L_10lazy_image6codecs9avif_safeNtB2_13SafeAvifImage15alpha_plane_mut
FNDA:0,_RNvMNtNtCs2c7XeETP86L_10lazy_image6codecs9avif_safeNtB2_13SafeAvifImage15alpha_row_bytes
FNDA:0,_RNvMNtNtCs2c7XeETP86L_10lazy_image6codecs9avif_safeNtB2_13SafeAvifImage15set_icc_profile
FNDA:3,_RNvMNtNtCs2c7XeETP86L_10lazy_image6codecs9avif_safeNtB2_13SafeAvifImage20set_color_properties
FNDA:3,_RNvMNtNtCs2c7XeETP86L_10lazy_image6codecs9avif_safeNtB2_13SafeAvifImage3new
FNDA:0,_RNvMNtNtCs2c7XeETP86L_10lazy_image6codecs9avif_safeNtB2_13SafeAvifImage6as_ptr
FNDA:3,_RNvMs0_NtNtCs2c7XeETP86L_10lazy_image6codecs9avif_safeNtB5_15SafeAvifEncoder3new
FNDA:3,_RNvMs0_NtNtCs2c7XeETP86L_10lazy_image6codecs9avif_safeNtB5_15SafeAvifEncoder6finish
FNDA:3,_RNvMs0_NtNtCs2c7XeETP86L_10lazy_image6codecs9avif_safeNtB5_15SafeAvifEncoder9add_image
FNDA:3,_RNvMs0_NtNtCs2c7XeETP86L_10lazy_image6codecs9avif_safeNtB5_15SafeAvifEncoder9configure
FNDA:3,_RNvMs2_NtNtCs2c7XeETP86L_10lazy_image6codecs9avif_safeNtB5_14SafeAvifRwData10as_mut_ptr
FNDA:3,_RNvMs2_NtNtCs2c7XeETP86L_10lazy_image6codecs9avif_safeNtB5_14SafeAvifRwData3new
FNDA:3,_RNvMs2_NtNtCs2c7XeETP86L_10lazy_image6codecs9avif_safeNtB5_14SafeAvifRwData6to_vec
FNDA:3,_RNvMs2_NtNtCs2c7XeETP86L_10lazy_image6codecs9avif_safeNtB5_14SafeAvifRwData8as_slice
FNDA:3,_RNvNtNtCs2c7XeETP86L_10lazy_image6codecs9avif_safe16create_rgb_image
FNDA:0,_RNvXs4_NtNtCs2c7XeETP86L_10lazy_image6codecs9avif_safeNtB5_14SafeAvifRwDataNtNtCsaTRkahAGrLL_4core7default7Default7default
FNDA:12,_RNvXs1_NtNtCs7xzLeE8dEzx_10lazy_image6codecs9avif_safeNtB5_15SafeAvifEncoderNtNtNtCsaTRkahAGrLL_4core3ops4drop4Drop4drop
FNDA:12,_RNvXs3_NtNtCs7xzLeE8dEzx_10lazy_image6codecs9avif_safeNtB5_14SafeAvifRwDataNtNtNtCsaTRkahAGrLL_4core3ops4drop4Drop4drop
FNDA:12,_RNvXs_NtNtCs7xzLeE8dEzx_10lazy_image6codecs9avif_safeNtB4_13SafeAvifImageNtNtNtCsaTRkahAGrLL_4core3ops4drop4Drop4drop
FNDA:0,_RNvMNtNtCs7xzLeE8dEzx_10lazy_image6codecs9avif_safeNtB2_13SafeAvifImage6as_ptr
FNDA:0,_RNvXs4_NtNtCs7xzLeE8dEzx_10lazy_image6codecs9avif_safeNtB5_14SafeAvifRwDataNtNtCsaTRkahAGrLL_4core7default7Default7default
FNDA:24,_RNvMNtNtCs7xzLeE8dEzx_10lazy_image6codecs9avif_safeNtB2_13SafeAvifImage10as_mut_ptr
FNDA:12,_RNvMNtNtCs7xzLeE8dEzx_10lazy_image6codecs9avif_safeNtB2_13SafeAvifImage10rgb_to_yuv
FNDA:12,_RNvMNtNtCs7xzLeE8dEzx_10lazy_image6codecs9avif_safeNtB2_13SafeAvifImage15allocate_planes
FNDA:0,_RNvMNtNtCs7xzLeE8dEzx_10lazy_image6codecs9avif_safeNtB2_13SafeAvifImage15alpha_plane_mut
FNDA:0,_RNvMNtNtCs7xzLeE8dEzx_10lazy_image6codecs9avif_safeNtB2_13SafeAvifImage15alpha_row_bytes
FNDA:4,_RNvMNtNtCs7xzLeE8dEzx_10lazy_image6codecs9avif_safeNtB2_13SafeAvifImage15set_icc_profile
FNDA:12,_RNvMNtNtCs7xzLeE8dEzx_10lazy_image6codecs9avif_safeNtB2_13SafeAvifImage20set_color_properties
FNDA:12,_RNvMNtNtCs7xzLeE8dEzx_10lazy_image6codecs9avif_safeNtB2_13SafeAvifImage3new
FNDA:12,_RNvMs0_NtNtCs7xzLeE8dEzx_10lazy_image6codecs9avif_safeNtB5_15SafeAvifEncoder3new
FNDA:12,_RNvMs0_NtNtCs7xzLeE8dEzx_10lazy_image6codecs9avif_safeNtB5_15SafeAvifEncoder6finish
FNDA:12,_RNvMs0_NtNtCs7xzLeE8dEzx_10lazy_image6codecs9avif_safeNtB5_15SafeAvifEncoder9add_image
FNDA:12,_RNvMs0_NtNtCs7xzLeE8dEzx_10lazy_image6codecs9avif_safeNtB5_15SafeAvifEncoder9configure
FNDA:12,_RNvMs2_NtNtCs7xzLeE8dEzx_10lazy_image6codecs9avif_safeNtB5_14SafeAvifRwData10as_mut_ptr
FNDA:12,_RNvMs2_NtNtCs7xzLeE8dEzx_10lazy_image6codecs9avif_safeNtB5_14SafeAvifRwData3new
FNDA:12,_RNvMs2_NtNtCs7xzLeE8dEzx_10lazy_image6codecs9avif_safeNtB5_14SafeAvifRwData6to_vec
FNDA:12,_RNvMs2_NtNtCs7xzLeE8dEzx_10lazy_image6codecs9avif_safeNtB5_14SafeAvifRwData8as_slice
FNDA:12,_RNvNtNtCs7xzLeE8dEzx_10lazy_image6codecs9avif_safe16create_rgb_image
FNF:22
FNH:18
DA:27,15
DA:28,15
DA:29,15
DA:30,15
DA:31,15
DA:32,15
DA:33,15
DA:34,15
DA:35,0
DA:36,0
DA:37,0
DA:38,0
DA:39,15
DA:40,15
DA:41,15
DA:44,15
DA:45,15
DA:46,15
DA:47,15
DA:48,15
DA:49,15
DA:50,15
DA:51,15
DA:52,15
DA:53,15
DA:54,15
DA:55,15
DA:56,15
DA:57,15
DA:66,4
DA:67,4
DA:68,4
DA:69,4
DA:70,4
DA:71,0
DA:72,0
DA:73,0
DA:74,0
DA:75,4
DA:76,4
DA:77,4
DA:86,15
DA:87,15
DA:88,15
DA:89,0
DA:90,0
DA:91,0
DA:92,0
DA:93,15
DA:94,15
DA:95,15
DA:104,15
DA:105,15
DA:106,15
DA:107,0
DA:108,0
DA:109,0
DA:110,0
DA:111,15
DA:112,15
DA:113,15
DA:121,0
DA:122,0
DA:123,0
DA:126,0
DA:127,0
DA:128,0
DA:136,0
DA:137,0
DA:138,0
DA:146,30
DA:147,30
DA:148,30
DA:152,15
DA:153,15
DA:154,15
DA:155,15
DA:156,15
DA:158,15
DA:171,15
DA:172,15
DA:173,15
DA:174,0
DA:175,0
DA:176,0
DA:177,0
DA:178,15
DA:179,15
DA:180,15
DA:189,15
DA:190,15
DA:191,15
DA:192,15
DA:193,15
DA:194,15
DA:195,15
DA:196,15
DA:197,15
DA:198,15
DA:199,15
DA:200,15
DA:201,15
DA:202,15
DA:213,15
DA:214,15
DA:215,15
DA:216,15
DA:217,15
DA:218,15
DA:219,15
DA:220,15
DA:221,15
DA:222,15
DA:223,15
DA:224,15
DA:225,15
DA:226,15
DA:227,15
DA:228,0
DA:229,0
DA:230,0
DA:231,0
DA:232,15
DA:233,15
DA:234,15
DA:243,15
DA:244,15
DA:245,15
DA:246,0
DA:247,0
DA:248,0
DA:249,0
DA:250,15
DA:251,15
DA:252,15
DA:256,15
DA:257,15
DA:258,15
DA:259,15
DA:260,15
DA:262,15
DA:272,15
DA:273,15
DA:274,15
DA:275,15
DA:276,15
DA:282,15
DA:283,15
DA:284,15
DA:285,0
DA:287,15
DA:290,15
DA:296,15
DA:297,15
DA:298,15
DA:306,15
DA:307,15
DA:308,15
DA:312,15
DA:313,15
DA:314,15
DA:315,15
DA:316,15
DA:320,0
DA:321,0
DA:322,0
DA:327,15
DA:328,15
DA:329,15
DA:330,15
DA:331,15
DA:332,15
DA:333,15
DA:334,15
DA:335,15
DA:336,15
DA:337,15
DA:338,15
DA:339,15
DA:340,15
DA:341,15
DA:342,15
BRF:0
BRH:0
LF:182
LH:141
end_of_record
SF:/Users/shutoide/Developer/lazy-image/src/engine.rs
FN:83,_RNCNvNtNtCs7xzLeE8dEzx_10lazy_image6engine5tests17create_test_image0B7_
FN:89,_RNCNvNtNtCs7xzLeE8dEzx_10lazy_image6engine5tests22create_test_image_rgba0B7_
FN:1008,_RNvNtNtNtCs7xzLeE8dEzx_10lazy_image6engine5tests18optimize_ops_testss_21test_empty_operations
FN:998,_RNvNtNtNtCs7xzLeE8dEzx_10lazy_image6engine5tests18optimize_ops_testss_21test_single_operation
FN:1038,_RNvNtNtNtCs7xzLeE8dEzx_10lazy_image6engine5tests18optimize_ops_testss_32test_resize_with_both_dimensions
FN:960,_RNvNtNtNtCs7xzLeE8dEzx_10lazy_image6engine5tests18optimize_ops_testss_33test_consecutive_resizes_combined
FN:1015,_RNvNtNtNtCs7xzLeE8dEzx_10lazy_image6engine5tests18optimize_ops_testss_33test_multiple_consecutive_resizes
FN:981,_RNvNtNtNtCs7xzLeE8dEzx_10lazy_image6engine5tests18optimize_ops_testss_41test_non_consecutive_resizes_not_combined
FN:460,_RNvNtNtNtCs7xzLeE8dEzx_10lazy_image6engine5tests9icc_tests19create_png_with_icc
FN:454,_RNvNtNtNtCs7xzLeE8dEzx_10lazy_image6engine5tests9icc_tests20create_jpeg_with_icc
FN:466,_RNvNtNtNtCs7xzLeE8dEzx_10lazy_image6engine5tests9icc_tests20create_webp_with_icc
FN:420,_RNvNtNtNtCs7xzLeE8dEzx_10lazy_image6engine5tests9icc_tests23create_minimal_srgb_icc
FN:411,_RNvNtNtNtCs7xzLeE8dEzx_10lazy_image6engine5tests9icc_testss_29test_extract_icc_profile_jpeg
FN:310,_RNvNtNtNtCs7xzLeE8dEzx_10lazy_image6engine5tests9icc_testss_35test_validate_icc_profile_too_small
FN:388,_RNvNtNtNtCs7xzLeE8dEzx_10lazy_image6engine5tests9icc_testss_36test_extract_icc_from_png_no_profile
FN:380,_RNvNtNtNtCs7xzLeE8dEzx_10lazy_image6engine5tests9icc_testss_37test_extract_icc_from_jpeg_no_profile
FN:396,_RNvNtNtNtCs7xzLeE8dEzx_10lazy_image6engine5tests9icc_testss_37test_extract_icc_from_webp_no_profile
FN:404,_RNvNtNtNtCs7xzLeE8dEzx_10lazy_image6engine5tests9icc_testss_37test_extract_icc_profile_invalid_data
FN:316,_RNvNtNtNtCs7xzLeE8dEzx_10lazy_image6engine5tests9icc_testss_39test_validate_icc_profile_minimal_valid
FN:351,_RNvNtNtNtCs7xzLeE8dEzx_10lazy_image6engine5tests9icc_testss_39test_validate_icc_profile_size_mismatch
FN:368,_RNvNtNtNtCs7xzLeE8dEzx_10lazy_image6engine5tests9icc_testss_41test_validate_icc_profile_invalid_version
FN:1357,_RNvNtNtNtCs7xzLeE8dEzx_10lazy_image6engine5tests17fast_resize_testss_21test_fast_resize_rgba
FN:1323,_RNvNtNtNtCs7xzLeE8dEzx_10lazy_image6engine5tests17fast_resize_testss_24test_fast_resize_upscale
FN:1314,_RNvNtNtNtCs7xzLeE8dEzx_10lazy_image6engine5tests17fast_resize_testss_26test_fast_resize_downscale
FN:1348,_RNvNtNtNtCs7xzLeE8dEzx_10lazy_image6engine5tests17fast_resize_testss_26test_fast_resize_same_size
FN:1341,_RNvNtNtNtCs7xzLeE8dEzx_10lazy_image6engine5tests17fast_resize_testss_35test_fast_resize_invalid_dimensions
FN:1332,_RNvNtNtNtCs7xzLeE8dEzx_10lazy_image6engine5tests17fast_resize_testss_36test_fast_resize_aspect_ratio_change
FN:1221,_RNvNtNtNtCs7xzLeE8dEzx_10lazy_image6engine5tests12encode_testss_22test_encode_rgba_image
FN:1127,_RNvNtNtNtCs7xzLeE8dEzx_10lazy_image6engine5tests12encode_testss_24test_encode_png_with_icc
FN:1085,_RNvNtNtNtCs7xzLeE8dEzx_10lazy_image6engine5tests12encode_testss_25test_encode_jpeg_with_icc
FN:1169,_RNvNtNtNtCs7xzLeE8dEzx_10lazy_image6engine5tests12encode_testss_25test_encode_webp_with_icc
FN:1116,_RNvNtNtNtCs7xzLeE8dEzx_10lazy_image6engine5tests12encode_testss_34test_encode_png_produces_valid_png
FN:1200,_RNvNtNtNtCs7xzLeE8dEzx_10lazy_image6engine5tests12encode_testss_36test_encode_avif_produces_valid_avif
FN:1062,_RNvNtNtNtCs7xzLeE8dEzx_10lazy_image6engine5tests12encode_testss_36test_encode_jpeg_produces_valid_jpeg
FN:1160,_RNvNtNtNtCs7xzLeE8dEzx_10lazy_image6engine5tests12encode_testss_36test_encode_webp_produces_valid_webp
FN:1211,_RNvNtNtNtCs7xzLeE8dEzx_10lazy_image6engine5tests12encode_testss_37test_encode_avif_quality_affects_size
FN:1072,_RNvNtNtNtCs7xzLeE8dEzx_10lazy_image6engine5tests12encode_testss_37test_encode_jpeg_quality_affects_size
FN:880,_RNvNtNtNtCs7xzLeE8dEzx_10lazy_image6engine5tests15apply_ops_testss_11test_flip_h
FN:888,_RNvNtNtNtCs7xzLeE8dEzx_10lazy_image6engine5tests15apply_ops_testss_11test_flip_v
FN:913,_RNvNtNtNtCs7xzLeE8dEzx_10lazy_image6engine5tests15apply_ops_testss_13test_contrast
FN:860,_RNvNtNtNtCs7xzLeE8dEzx_10lazy_image6engine5tests15apply_ops_testss_13test_rotate_0
FN:828,_RNvNtNtNtCs7xzLeE8dEzx_10lazy_image6engine5tests15apply_ops_testss_14test_rotate_90
FN:905,_RNvNtNtNtCs7xzLeE8dEzx_10lazy_image6engine5tests15apply_ops_testss_15test_brightness
FN:775,_RNvNtNtNtCs7xzLeE8dEzx_10lazy_image6engine5tests15apply_ops_testss_15test_crop_valid
FN:836,_RNvNtNtNtCs7xzLeE8dEzx_10lazy_image6engine5tests15apply_ops_testss_15test_rotate_180
FN:844,_RNvNtNtNtCs7xzLeE8dEzx_10lazy_image6engine5tests15apply_ops_testss_15test_rotate_270
FN:852,_RNvNtNtNtCs7xzLeE8dEzx_10lazy_image6engine5tests15apply_ops_testss_17test_rotate_neg90
FN:802,_RNvNtNtNtCs7xzLeE8dEzx_10lazy_image6engine5tests15apply_ops_testss_19test_crop_at_origin
FN:921,_RNvNtNtNtCs7xzLeE8dEzx_10lazy_image6engine5tests15apply_ops_testss_20test_colorspace_srgb
FN:948,_RNvNtNtNtCs7xzLeE8dEzx_10lazy_image6engine5tests15apply_ops_testss_21test_empty_operations
FN:742,_RNvNtNtNtCs7xzLeE8dEzx_10lazy_image6engine5tests15apply_ops_testss_21test_resize_operation
FN:815,_RNvNtNtNtCs7xzLeE8dEzx_10lazy_image6engine5tests15apply_ops_testss_22test_crop_entire_image
FN:753,_RNvNtNtNtCs7xzLeE8dEzx_10lazy_image6engine5tests15apply_ops_testss_22test_resize_width_only
FN:931,_RNvNtNtNtCs7xzLeE8dEzx_10lazy_image6engine5tests15apply_ops_testss_23test_chained_operations
FN:788,_RNvNtNtNtCs7xzLeE8dEzx_10lazy_image6engine5tests15apply_ops_testss_23test_crop_out_of_bounds
FN:764,_RNvNtNtNtCs7xzLeE8dEzx_10lazy_image6engine5tests15apply_ops_testss_23test_resize_height_only
FN:868,_RNvNtNtNtCs7xzLeE8dEzx_10lazy_image6engine5tests15apply_ops_testss_25test_rotate_invalid_angle
FN:896,_RNvNtNtNtCs7xzLeE8dEzx_10lazy_image6engine5tests15apply_ops_testss_31test_grayscale_reduces_channels
FN:1292,_RNvNtNtNtCs7xzLeE8dEzx_10lazy_image6engine5tests12decode_testss_21test_decode_no_source
FN:1238,_RNvNtNtNtCs7xzLeE8dEzx_10lazy_image6engine5tests12decode_testss_24test_decode_jpeg_mozjpeg
FN:1275,_RNvNtNtNtCs7xzLeE8dEzx_10lazy_image6engine5tests12decode_testss_27test_decode_already_decoded
FN:1255,_RNvNtNtNtCs7xzLeE8dEzx_10lazy_image6engine5tests12decode_testss_28test_decode_with_image_crate
FN:1248,_RNvNtNtNtCs7xzLeE8dEzx_10lazy_image6engine5tests12decode_testss_37test_decode_jpeg_mozjpeg_invalid_data
FN:486,_RNvNtNtNtNtCs7xzLeE8dEzx_10lazy_image6engine5tests9icc_tests16extraction_testss_38test_extract_icc_from_png_with_profile
FN:475,_RNvNtNtNtNtCs7xzLeE8dEzx_10lazy_image6engine5tests9icc_tests16extraction_testss_39test_extract_icc_from_jpeg_with_profile
FN:502,_RNvNtNtNtNtCs7xzLeE8dEzx_10lazy_image6engine5tests9icc_tests16extraction_testss_39test_extract_icc_from_webp_with_profile
FN:523,_RNvNtNtNtNtCs7xzLeE8dEzx_10lazy_image6engine5tests9icc_tests16extraction_testss_39test_extract_icc_returns_none_for_empty
FN:510,_RNvNtNtNtNtCs7xzLeE8dEzx_10lazy_image6engine5tests9icc_tests16extraction_testss_40test_extract_icc_returns_none_for_no_icc
FN:517,_RNvNtNtNtNtCs7xzLeE8dEzx_10lazy_image6engine5tests9icc_tests16extraction_testss_43test_extract_icc_returns_none_for_non_image
FN:205,_RNvNtNtNtCs7xzLeE8dEzx_10lazy_image6engine5tests17resize_calc_testss_17test_square_image
FN:180,_RNvNtNtNtCs7xzLeE8dEzx_10lazy_image6engine5tests17resize_calc_testss_22test_rounding_behavior
FN:174,_RNvNtNtNtCs7xzLeE8dEzx_10lazy_image6engine5tests17resize_calc_testss_26test_none_returns_original
FN:154,_RNvNtNtNtCs7xzLeE8dEzx_10lazy_image6engine5tests17resize_calc_testss_30test_both_dimensions_specified
FN:197,_RNvNtNtNtCs7xzLeE8dEzx_10lazy_image6engine5tests17resize_calc_testss_35test_aspect_ratio_preservation_tall
FN:189,_RNvNtNtNtCs7xzLeE8dEzx_10lazy_image6engine5tests17resize_calc_testss_35test_aspect_ratio_preservation_wide
FN:232,_RNvNtNtNtCs7xzLeE8dEzx_10lazy_image6engine5tests17resize_calc_testss_38test_both_dimensions_same_aspect_ratio
FN:160,_RNvNtNtNtCs7xzLeE8dEzx_10lazy_image6engine5tests17resize_calc_testss_38test_width_only_maintains_aspect_ratio
FN:167,_RNvNtNtNtCs7xzLeE8dEzx_10lazy_image6engine5tests17resize_calc_testss_39test_height_only_maintains_aspect_ratio
FN:222,_RNvNtNtNtCs7xzLeE8dEzx_10lazy_image6engine5tests17resize_calc_testss_43test_both_dimensions_tall_image_fits_inside
FN:212,_RNvNtNtNtCs7xzLeE8dEzx_10lazy_image6engine5tests17resize_calc_testss_43test_both_dimensions_wide_image_fits_inside
FN:592,_RNvNtNtNtNtCs7xzLeE8dEzx_10lazy_image6engine5tests9icc_tests15roundtrip_testss_18test_png_roundtrip
FN:572,_RNvNtNtNtNtCs7xzLeE8dEzx_10lazy_image6engine5tests9icc_tests15roundtrip_testss_19test_jpeg_roundtrip
FN:616,_RNvNtNtNtNtCs7xzLeE8dEzx_10lazy_image6engine5tests9icc_tests15roundtrip_testss_19test_webp_roundtrip
FN:629,_RNvNtNtNtNtCs7xzLeE8dEzx_10lazy_image6engine5tests9icc_tests15roundtrip_testss_39test_cross_format_roundtrip_jpeg_to_png
FN:651,_RNvNtNtNtNtCs7xzLeE8dEzx_10lazy_image6engine5tests9icc_tests15roundtrip_testss_39test_cross_format_roundtrip_png_to_webp
FN:82,_RNvNtNtCs7xzLeE8dEzx_10lazy_image6engine5tests17create_test_image
FN:122,_RNvNtNtCs7xzLeE8dEzx_10lazy_image6engine5tests18create_minimal_png
FN:95,_RNvNtNtCs7xzLeE8dEzx_10lazy_image6engine5tests19create_minimal_jpeg
FN:131,_RNvNtNtCs7xzLeE8dEzx_10lazy_image6engine5tests19create_minimal_webp
FN:88,_RNvNtNtCs7xzLeE8dEzx_10lazy_image6engine5tests22create_test_image_rgba
FN:142,_RNvNtNtCs7xzLeE8dEzx_10lazy_image6engine5testss_54fast_resize_owned_returns_error_instead_of_dummy_image
FN:1206,_RNCNvNtNtNtCs7xzLeE8dEzx_10lazy_image6engine5tests12encode_testss_36test_encode_avif_produces_valid_avif0B9_
FN:720,_RNvNtNtNtNtCs7xzLeE8dEzx_10lazy_image6engine5tests9icc_tests14avif_icc_testss_30test_avif_encoding_without_icc
FN:679,_RNvNtNtNtNtCs7xzLeE8dEzx_10lazy_image6engine5tests9icc_tests14avif_icc_testss_31test_avif_preserves_icc_profile
FN:711,_RNvNtNtNtNtCs7xzLeE8dEzx_10lazy_image6engine5tests9icc_tests14avif_icc_testss_42test_avif_encoding_with_icc_does_not_crash
FN:563,_RNvNtNtNtNtCs7xzLeE8dEzx_10lazy_image6engine5tests9icc_tests16validation_testss_19test_validate_empty
FN:558,_RNvNtNtNtNtCs7xzLeE8dEzx_10lazy_image6engine5tests9icc_tests16validation_testss_23test_validate_too_short
FN:533,_RNvNtNtNtNtCs7xzLeE8dEzx_10lazy_image6engine5tests9icc_tests16validation_testss_23test_validate_valid_icc
FN:539,_RNvNtNtNtNtCs7xzLeE8dEzx_10lazy_image6engine5tests9icc_tests16validation_testss_27test_validate_truncated_icc
FN:547,_RNvNtNtNtNtCs7xzLeE8dEzx_10lazy_image6engine5tests9icc_tests16validation_testss_30test_validate_wrong_size_field
FN:244,_RNvNtNtNtCs7xzLeE8dEzx_10lazy_image6engine5tests14security_testss_27test_check_dimensions_valid
FN:293,_RNvNtNtNtCs7xzLeE8dEzx_10lazy_image6engine5tests14security_testss_33test_check_dimensions_small_image
FN:298,_RNvNtNtNtCs7xzLeE8dEzx_10lazy_image6engine5tests14security_testss_36test_check_dimensions_zero_dimension
FN:282,_RNvNtNtNtCs7xzLeE8dEzx_10lazy_image6engine5tests14security_testss_38test_check_dimensions_at_max_dimension
FN:276,_RNvNtNtNtCs7xzLeE8dEzx_10lazy_image6engine5tests14security_testss_39test_check_dimensions_at_pixel_boundary
FN:268,_RNvNtNtNtCs7xzLeE8dEzx_10lazy_image6engine5tests14security_testss_40test_check_dimensions_exceeds_max_pixels
FN:254,_RNvNtNtNtCs7xzLeE8dEzx_10lazy_image6engine5tests14security_testss_43test_check_dimensions_exceeds_max_dimension
FN:261,_RNvNtNtNtCs7xzLeE8dEzx_10lazy_image6engine5tests14security_testss_50test_check_dimensions_exceeds_max_dimension_height
FNDA:477607,_RNCNvNtNtCs7xzLeE8dEzx_10lazy_image6engine5tests17create_test_image0B7_
FNDA:20000,_RNCNvNtNtCs7xzLeE8dEzx_10lazy_image6engine5tests22create_test_image_rgba0B7_
FNDA:1,_RNvNtNtNtCs7xzLeE8dEzx_10lazy_image6engine5tests18optimize_ops_testss_21test_empty_operations
FNDA:1,_RNvNtNtNtCs7xzLeE8dEzx_10lazy_image6engine5tests18optimize_ops_testss_21test_single_operation
FNDA:1,_RNvNtNtNtCs7xzLeE8dEzx_10lazy_image6engine5tests18optimize_ops_testss_32test_resize_with_both_dimensions
FNDA:1,_RNvNtNtNtCs7xzLeE8dEzx_10lazy_image6engine5tests18optimize_ops_testss_33test_consecutive_resizes_combined
FNDA:1,_RNvNtNtNtCs7xzLeE8dEzx_10lazy_image6engine5tests18optimize_ops_testss_33test_multiple_consecutive_resizes
FNDA:1,_RNvNtNtNtCs7xzLeE8dEzx_10lazy_image6engine5tests18optimize_ops_testss_41test_non_consecutive_resizes_not_combined
FNDA:3,_RNvNtNtNtCs7xzLeE8dEzx_10lazy_image6engine5tests9icc_tests19create_png_with_icc
FNDA:3,_RNvNtNtNtCs7xzLeE8dEzx_10lazy_image6engine5tests9icc_tests20create_jpeg_with_icc
FNDA:2,_RNvNtNtNtCs7xzLeE8dEzx_10lazy_image6engine5tests9icc_tests20create_webp_with_icc
FNDA:13,_RNvNtNtNtCs7xzLeE8dEzx_10lazy_image6engine5tests9icc_tests23create_minimal_srgb_icc
FNDA:1,_RNvNtNtNtCs7xzLeE8dEzx_10lazy_image6engine5tests9icc_testss_29test_extract_icc_profile_jpeg
FNDA:1,_RNvNtNtNtCs7xzLeE8dEzx_10lazy_image6engine5tests9icc_testss_35test_validate_icc_profile_too_small
FNDA:1,_RNvNtNtNtCs7xzLeE8dEzx_10lazy_image6engine5tests9icc_testss_36test_extract_icc_from_png_no_profile
FNDA:1,_RNvNtNtNtCs7xzLeE8dEzx_10lazy_image6engine5tests9icc_testss_37test_extract_icc_from_jpeg_no_profile
FNDA:1,_RNvNtNtNtCs7xzLeE8dEzx_10lazy_image6engine5tests9icc_testss_37test_extract_icc_from_webp_no_profile
FNDA:1,_RNvNtNtNtCs7xzLeE8dEzx_10lazy_image6engine5tests9icc_testss_37test_extract_icc_profile_invalid_data
FNDA:1,_RNvNtNtNtCs7xzLeE8dEzx_10lazy_image6engine5tests9icc_testss_39test_validate_icc_profile_minimal_valid
FNDA:1,_RNvNtNtNtCs7xzLeE8dEzx_10lazy_image6engine5tests9icc_testss_39test_validate_icc_profile_size_mismatch
FNDA:1,_RNvNtNtNtCs7xzLeE8dEzx_10lazy_image6engine5tests9icc_testss_41test_validate_icc_profile_invalid_version
FNDA:1,_RNvNtNtNtCs7xzLeE8dEzx_10lazy_image6engine5tests17fast_resize_testss_21test_fast_resize_rgba
FNDA:1,_RNvNtNtNtCs7xzLeE8dEzx_10lazy_image6engine5tests17fast_resize_testss_24test_fast_resize_upscale
FNDA:1,_RNvNtNtNtCs7xzLeE8dEzx_10lazy_image6engine5tests17fast_resize_testss_26test_fast_resize_downscale
FNDA:1,_RNvNtNtNtCs7xzLeE8dEzx_10lazy_image6engine5tests17fast_resize_testss_26test_fast_resize_same_size
FNDA:1,_RNvNtNtNtCs7xzLeE8dEzx_10lazy_image6engine5tests17fast_resize_testss_35test_fast_resize_invalid_dimensions
FNDA:1,_RNvNtNtNtCs7xzLeE8dEzx_10lazy_image6engine5tests17fast_resize_testss_36test_fast_resize_aspect_ratio_change
FNDA:1,_RNvNtNtNtCs7xzLeE8dEzx_10lazy_image6engine5tests12encode_testss_22test_encode_rgba_image
FNDA:1,_RNvNtNtNtCs7xzLeE8dEzx_10lazy_image6engine5tests12encode_testss_24test_encode_png_with_icc
FNDA:1,_RNvNtNtNtCs7xzLeE8dEzx_10lazy_image6engine5tests12encode_testss_25test_encode_jpeg_with_icc
FNDA:1,_RNvNtNtNtCs7xzLeE8dEzx_10lazy_image6engine5tests12encode_testss_25test_encode_webp_with_icc
FNDA:1,_RNvNtNtNtCs7xzLeE8dEzx_10lazy_image6engine5tests12encode_testss_34test_encode_png_produces_valid_png
FNDA:1,_RNvNtNtNtCs7xzLeE8dEzx_10lazy_image6engine5tests12encode_testss_36test_encode_avif_produces_valid_avif
FNDA:1,_RNvNtNtNtCs7xzLeE8dEzx_10lazy_image6engine5tests12encode_testss_36test_encode_jpeg_produces_valid_jpeg
FNDA:1,_RNvNtNtNtCs7xzLeE8dEzx_10lazy_image6engine5tests12encode_testss_36test_encode_webp_produces_valid_webp
FNDA:1,_RNvNtNtNtCs7xzLeE8dEzx_10lazy_image6engine5tests12encode_testss_37test_encode_avif_quality_affects_size
FNDA:1,_RNvNtNtNtCs7xzLeE8dEzx_10lazy_image6engine5tests12encode_testss_37test_encode_jpeg_quality_affects_size
FNDA:1,_RNvNtNtNtCs7xzLeE8dEzx_10lazy_image6engine5tests15apply_ops_testss_11test_flip_h
FNDA:1,_RNvNtNtNtCs7xzLeE8dEzx_10lazy_image6engine5tests15apply_ops_testss_11test_flip_v
FNDA:1,_RNvNtNtNtCs7xzLeE8dEzx_10lazy_image6engine5tests15apply_ops_testss_13test_contrast
FNDA:1,_RNvNtNtNtCs7xzLeE8dEzx_10lazy_image6engine5tests15apply_ops_testss_13test_rotate_0
FNDA:1,_RNvNtNtNtCs7xzLeE8dEzx_10lazy_image6engine5tests15apply_ops_testss_14test_rotate_90
FNDA:1,_RNvNtNtNtCs7xzLeE8dEzx_10lazy_image6engine5tests15apply_ops_testss_15test_brightness
FNDA:1,_RNvNtNtNtCs7xzLeE8dEzx_10lazy_image6engine5tests15apply_ops_testss_15test_crop_valid
FNDA:1,_RNvNtNtNtCs7xzLeE8dEzx_10lazy_image6engine5tests15apply_ops_testss_15test_rotate_180
FNDA:1,_RNvNtNtNtCs7xzLeE8dEzx_10lazy_image6engine5tests15apply_ops_testss_15test_rotate_270
FNDA:1,_RNvNtNtNtCs7xzLeE8dEzx_10lazy_image6engine5tests15apply_ops_testss_17test_rotate_neg90
FNDA:1,_RNvNtNtNtCs7xzLeE8dEzx_10lazy_image6engine5tests15apply_ops_testss_19test_crop_at_origin
FNDA:1,_RNvNtNtNtCs7xzLeE8dEzx_10lazy_image6engine5tests15apply_ops_testss_20test_colorspace_srgb
FNDA:1,_RNvNtNtNtCs7xzLeE8dEzx_10lazy_image6engine5tests15apply_ops_testss_21test_empty_operations
FNDA:1,_RNvNtNtNtCs7xzLeE8dEzx_10lazy_image6engine5tests15apply_ops_testss_21test_resize_operation
FNDA:1,_RNvNtNtNtCs7xzLeE8dEzx_10lazy_image6engine5tests15apply_ops_testss_22test_crop_entire_image
FNDA:1,_RNvNtNtNtCs7xzLeE8dEzx_10lazy_image6engine5tests15apply_ops_testss_22test_resize_width_only
FNDA:1,_RNvNtNtNtCs7xzLeE8dEzx_10lazy_image6engine5tests15apply_ops_testss_23test_chained_operations
FNDA:1,_RNvNtNtNtCs7xzLeE8dEzx_10lazy_image6engine5tests15apply_ops_testss_23test_crop_out_of_bounds
FNDA:1,_RNvNtNtNtCs7xzLeE8dEzx_10lazy_image6engine5tests15apply_ops_testss_23test_resize_height_only
FNDA:1,_RNvNtNtNtCs7xzLeE8dEzx_10lazy_image6engine5tests15apply_ops_testss_25test_rotate_invalid_angle
FNDA:1,_RNvNtNtNtCs7xzLeE8dEzx_10lazy_image6engine5tests15apply_ops_testss_31test_grayscale_reduces_channels
FNDA:1,_RNvNtNtNtCs7xzLeE8dEzx_10lazy_image6engine5tests12decode_testss_21test_decode_no_source
FNDA:1,_RNvNtNtNtCs7xzLeE8dEzx_10lazy_image6engine5tests12decode_testss_24test_decode_jpeg_mozjpeg
FNDA:1,_RNvNtNtNtCs7xzLeE8dEzx_10lazy_image6engine5tests12decode_testss_27test_decode_already_decoded
FNDA:1,_RNvNtNtNtCs7xzLeE8dEzx_10lazy_image6engine5tests12decode_testss_28test_decode_with_image_crate
FNDA:1,_RNvNtNtNtCs7xzLeE8dEzx_10lazy_image6engine5tests12decode_testss_37test_decode_jpeg_mozjpeg_invalid_data
FNDA:1,_RNvNtNtNtNtCs7xzLeE8dEzx_10lazy_image6engine5tests9icc_tests16extraction_testss_38test_extract_icc_from_png_with_profile
FNDA:1,_RNvNtNtNtNtCs7xzLeE8dEzx_10lazy_image6engine5tests9icc_tests16extraction_testss_39test_extract_icc_from_jpeg_with_profile
FNDA:1,_RNvNtNtNtNtCs7xzLeE8dEzx_10lazy_image6engine5tests9icc_tests16extraction_testss_39test_extract_icc_from_webp_with_profile
FNDA:1,_RNvNtNtNtNtCs7xzLeE8dEzx_10lazy_image6engine5tests9icc_tests16extraction_testss_39test_extract_icc_returns_none_for_empty
FNDA:1,_RNvNtNtNtNtCs7xzLeE8dEzx_10lazy_image6engine5tests9icc_tests16extraction_testss_40test_extract_icc_returns_none_for_no_icc
FNDA:1,_RNvNtNtNtNtCs7xzLeE8dEzx_10lazy_image6engine5tests9icc_tests16extraction_testss_43test_extract_icc_returns_none_for_non_image
FNDA:1,_RNvNtNtNtCs7xzLeE8dEzx_10lazy_image6engine5tests17resize_calc_testss_17test_square_image
FNDA:1,_RNvNtNtNtCs7xzLeE8dEzx_10lazy_image6engine5tests17resize_calc_testss_22test_rounding_behavior
FNDA:1,_RNvNtNtNtCs7xzLeE8dEzx_10lazy_image6engine5tests17resize_calc_testss_26test_none_returns_original
FNDA:1,_RNvNtNtNtCs7xzLeE8dEzx_10lazy_image6engine5tests17resize_calc_testss_30test_both_dimensions_specified
FNDA:1,_RNvNtNtNtCs7xzLeE8dEzx_10lazy_image6engine5tests17resize_calc_testss_35test_aspect_ratio_preservation_tall
FNDA:1,_RNvNtNtNtCs7xzLeE8dEzx_10lazy_image6engine5tests17resize_calc_testss_35test_aspect_ratio_preservation_wide
FNDA:1,_RNvNtNtNtCs7xzLeE8dEzx_10lazy_image6engine5tests17resize_calc_testss_38test_both_dimensions_same_aspect_ratio
FNDA:1,_RNvNtNtNtCs7xzLeE8dEzx_10lazy_image6engine5tests17resize_calc_testss_38test_width_only_maintains_aspect_ratio
FNDA:1,_RNvNtNtNtCs7xzLeE8dEzx_10lazy_image6engine5tests17resize_calc_testss_39test_height_only_maintains_aspect_ratio
FNDA:1,_RNvNtNtNtCs7xzLeE8dEzx_10lazy_image6engine5tests17resize_calc_testss_43test_both_dimensions_tall_image_fits_inside
FNDA:1,_RNvNtNtNtCs7xzLeE8dEzx_10lazy_image6engine5tests17resize_calc_testss_43test_both_dimensions_wide_image_fits_inside
FNDA:1,_RNvNtNtNtNtCs7xzLeE8dEzx_10lazy_image6engine5tests9icc_tests15roundtrip_testss_18test_png_roundtrip
FNDA:1,_RNvNtNtNtNtCs7xzLeE8dEzx_10lazy_image6engine5tests9icc_tests15roundtrip_testss_19test_jpeg_roundtrip
FNDA:1,_RNvNtNtNtNtCs7xzLeE8dEzx_10lazy_image6engine5tests9icc_tests15roundtrip_testss_19test_webp_roundtrip
FNDA:1,_RNvNtNtNtNtCs7xzLeE8dEzx_10lazy_image6engine5tests9icc_tests15roundtrip_testss_39test_cross_format_roundtrip_jpeg_to_png
FNDA:1,_RNvNtNtNtNtCs7xzLeE8dEzx_10lazy_image6engine5tests9icc_tests15roundtrip_testss_39test_cross_format_roundtrip_png_to_webp
FNDA:55,_RNvNtNtCs7xzLeE8dEzx_10lazy_image6engine5tests17create_test_image
FNDA:2,_RNvNtNtCs7xzLeE8dEzx_10lazy_image6engine5tests18create_minimal_png
FNDA:4,_RNvNtNtCs7xzLeE8dEzx_10lazy_image6engine5tests19create_minimal_jpeg
FNDA:1,_RNvNtNtCs7xzLeE8dEzx_10lazy_image6engine5tests19create_minimal_webp
FNDA:2,_RNvNtNtCs7xzLeE8dEzx_10lazy_image6engine5tests22create_test_image_rgba
FNDA:1,_RNvNtNtCs7xzLeE8dEzx_10lazy_image6engine5testss_54fast_resize_owned_returns_error_instead_of_dummy_image
FNDA:5,_RNCNvNtNtNtCs7xzLeE8dEzx_10lazy_image6engine5tests12encode_testss_36test_encode_avif_produces_valid_avif0B9_
FNDA:1,_RNvNtNtNtNtCs7xzLeE8dEzx_10lazy_image6engine5tests9icc_tests14avif_icc_testss_30test_avif_encoding_without_icc
FNDA:1,_RNvNtNtNtNtCs7xzLeE8dEzx_10lazy_image6engine5tests9icc_tests14avif_icc_testss_31test_avif_preserves_icc_profile
FNDA:1,_RNvNtNtNtNtCs7xzLeE8dEzx_10lazy_image6engine5tests9icc_tests14avif_icc_testss_42test_avif_encoding_with_icc_does_not_crash
FNDA:1,_RNvNtNtNtNtCs7xzLeE8dEzx_10lazy_image6engine5tests9icc_tests16validation_testss_19test_validate_empty
FNDA:1,_RNvNtNtNtNtCs7xzLeE8dEzx_10lazy_image6engine5tests9icc_tests16validation_testss_23test_validate_too_short
FNDA:1,_RNvNtNtNtNtCs7xzLeE8dEzx_10lazy_image6engine5tests9icc_tests16validation_testss_23test_validate_valid_icc
FNDA:1,_RNvNtNtNtNtCs7xzLeE8dEzx_10lazy_image6engine5tests9icc_tests16validation_testss_27test_validate_truncated_icc
FNDA:1,_RNvNtNtNtNtCs7xzLeE8dEzx_10lazy_image6engine5tests9icc_tests16validation_testss_30test_validate_wrong_size_field
FNDA:1,_RNvNtNtNtCs7xzLeE8dEzx_10lazy_image6engine5tests14security_testss_27test_check_dimensions_valid
FNDA:1,_RNvNtNtNtCs7xzLeE8dEzx_10lazy_image6engine5tests14security_testss_33test_check_dimensions_small_image
FNDA:1,_RNvNtNtNtCs7xzLeE8dEzx_10lazy_image6engine5tests14security_testss_36test_check_dimensions_zero_dimension
FNDA:1,_RNvNtNtNtCs7xzLeE8dEzx_10lazy_image6engine5tests14security_testss_38test_check_dimensions_at_max_dimension
FNDA:1,_RNvNtNtNtCs7xzLeE8dEzx_10lazy_image6engine5tests14security_testss_39test_check_dimensions_at_pixel_boundary
FNDA:1,_RNvNtNtNtCs7xzLeE8dEzx_10lazy_image6engine5tests14security_testss_40test_check_dimensions_exceeds_max_pixels
FNDA:1,_RNvNtNtNtCs7xzLeE8dEzx_10lazy_image6engine5tests14security_testss_43test_check_dimensions_exceeds_max_dimension
FNDA:1,_RNvNtNtNtCs7xzLeE8dEzx_10lazy_image6engine5tests14security_testss_50test_check_dimensions_exceeds_max_dimension_height
FNF:108
FNH:108
DA:82,55
DA:83,477607
DA:84,477607
DA:85,477607
DA:86,55
DA:88,2
DA:89,20000
DA:90,20000
DA:91,20000
DA:92,2
DA:95,4
DA:96,4
DA:97,4
DA:98,4
DA:99,4
DA:100,4
DA:101,4
DA:102,4
DA:103,4
DA:104,4
DA:105,4
DA:106,4
DA:107,4
DA:108,4
DA:109,4
DA:110,4
DA:111,4
DA:112,4
DA:113,4
DA:114,4
DA:115,4
DA:116,4
DA:117,4
DA:118,4
DA:119,4
DA:122,2
DA:123,2
DA:124,2
DA:125,2
DA:126,2
DA:127,2
DA:128,2
DA:131,1
DA:132,1
DA:133,1
DA:134,1
DA:135,1
DA:136,1
DA:137,1
DA:138,1
DA:139,1
DA:142,1
DA:143,1
DA:144,1
DA:145,1
DA:146,1
DA:147,1
DA:148,1
DA:154,1
DA:155,1
DA:156,1
DA:157,1
DA:160,1
DA:161,1
DA:162,1
DA:163,1
DA:164,1
DA:167,1
DA:168,1
DA:169,1
DA:170,1
DA:171,1
DA:174,1
DA:175,1
DA:176,1
DA:177,1
DA:180,1
DA:181,1
DA:182,1
DA:183,1
DA:185,1
DA:186,1
DA:189,1
DA:190,1
DA:191,1
DA:192,1
DA:193,1
DA:194,1
DA:197,1
DA:198,1
DA:199,1
DA:200,1
DA:201,1
DA:202,1
DA:205,1
DA:206,1
DA:207,1
DA:208,1
DA:209,1
DA:212,1
DA:213,1
DA:214,1
DA:215,1
DA:216,1
DA:217,1
DA:218,1
DA:219,1
DA:222,1
DA:223,1
DA:224,1
DA:225,1
DA:226,1
DA:227,1
DA:228,1
DA:229,1
DA:232,1
DA:233,1
DA:234,1
DA:235,1
DA:236,1
DA:237,1
DA:244,1
DA:245,1
DA:248,1
DA:249,1
DA:250,1
DA:251,1
DA:254,1
DA:255,1
DA:256,1
DA:257,1
DA:258,1
DA:261,1
DA:262,1
DA:263,1
DA:264,1
DA:265,1
DA:268,1
DA:269,1
DA:270,1
DA:271,1
DA:272,1
DA:273,1
DA:276,1
DA:277,1
DA:278,1
DA:279,1
DA:282,1
DA:283,1
DA:284,1
DA:285,1
DA:286,1
DA:287,1
DA:288,1
DA:289,1
DA:290,1
DA:293,1
DA:294,1
DA:295,1
DA:298,1
DA:299,1
DA:300,1
DA:301,1
DA:302,1
DA:310,1
DA:311,1
DA:312,1
DA:313,1
DA:316,1
DA:317,1
DA:318,1
DA:319,1
DA:320,1
DA:321,1
DA:322,1
DA:323,1
DA:324,1
DA:325,1
DA:326,1
DA:327,1
DA:328,1
DA:329,1
DA:330,1
DA:331,1
DA:332,1
DA:333,1
DA:334,1
DA:335,1
DA:336,1
DA:337,1
DA:338,1
DA:339,1
DA:340,1
DA:341,1
DA:342,1
DA:343,1
DA:344,1
DA:345,1
DA:346,1
DA:347,1
DA:348,1
DA:351,1
DA:352,1
DA:353,1
DA:354,1
DA:355,1
DA:356,1
DA:357,1
DA:358,1
DA:359,1
DA:360,1
DA:361,1
DA:362,1
DA:363,1
DA:364,1
DA:365,1
DA:368,1
DA:369,1
DA:370,1
DA:371,1
DA:372,1
DA:373,1
DA:374,1
DA:375,1
DA:376,1
DA:377,1
DA:380,1
DA:381,1
DA:382,1
DA:383,1
DA:384,1
DA:385,1
DA:388,1
DA:389,1
DA:390,1
DA:391,1
DA:392,1
DA:393,1
DA:396,1
DA:397,1
DA:398,1
DA:399,1
DA:400,1
DA:401,1
DA:404,1
DA:405,1
DA:406,1
DA:407,1
DA:408,1
DA:411,1
DA:412,1
DA:413,1
DA:414,1
DA:415,1
DA:416,1
DA:417,1
DA:420,13
DA:421,13
DA:422,13
DA:423,13
DA:424,13
DA:425,13
DA:426,13
DA:427,13
DA:428,13
DA:429,13
DA:430,13
DA:431,13
DA:432,13
DA:433,13
DA:434,13
DA:435,13
DA:436,13
DA:437,13
DA:438,13
DA:439,13
DA:440,13
DA:441,13
DA:442,13
DA:443,13
DA:444,13
DA:445,13
DA:446,13
DA:447,13
DA:448,13
DA:449,13
DA:450,13
DA:451,13
DA:454,3
DA:455,3
DA:456,3
DA:457,3
DA:460,3
DA:461,3
DA:462,3
DA:463,3
DA:466,2
DA:467,2
DA:468,2
DA:469,2
DA:475,1
DA:476,1
DA:477,1
DA:478,1
DA:479,1
DA:480,1
DA:481,1
DA:482,1
DA:483,1
DA:486,1
DA:487,1
DA:488,1
DA:489,1
DA:490,1
DA:491,1
DA:492,1
DA:493,1
DA:494,1
DA:495,1
DA:496,1
DA:497,1
DA:498,1
DA:499,1
DA:502,1
DA:503,1
DA:504,1
DA:505,1
DA:506,1
DA:507,1
DA:510,1
DA:511,1
DA:512,1
DA:513,1
DA:514,1
DA:517,1
DA:518,1
DA:519,1
DA:520,1
DA:523,1
DA:524,1
DA:525,1
DA:526,1
DA:533,1
DA:534,1
DA:535,1
DA:536,1
DA:539,1
DA:540,1
DA:541,1
DA:542,1
DA:543,1
DA:544,1
DA:547,1
DA:548,1
DA:549,1
DA:550,1
DA:551,1
DA:552,1
DA:553,1
DA:554,1
DA:555,1
DA:558,1
DA:559,1
DA:560,1
DA:563,1
DA:564,1
DA:565,1
DA:572,1
DA:573,1
DA:574,1
DA:575,1
DA:576,1
DA:577,1
DA:578,1
DA:579,1
DA:580,1
DA:581,1
DA:582,1
DA:583,1
DA:584,1
DA:585,1
DA:586,1
DA:587,1
DA:588,1
DA:589,1
DA:592,1
DA:593,1
DA:594,1
DA:595,1
DA:596,1
DA:597,1
DA:598,1
DA:599,1
DA:600,1
DA:601,0
DA:602,0
DA:603,0
DA:604,0
DA:605,0
DA:606,0
DA:607,0
DA:608,0
DA:609,0
DA:610,0
DA:611,0
DA:612,0
DA:613,1
DA:616,1
DA:617,1
DA:618,1
DA:619,1
DA:620,1
DA:621,1
DA:622,1
DA:623,1
DA:624,1
DA:625,1
DA:626,1
DA:629,1
DA:630,1
DA:631,1
DA:632,1
DA:633,1
DA:634,1
DA:635,1
DA:636,1
DA:637,1
DA:638,1
DA:639,1
DA:640,1
DA:641,1
DA:642,1
DA:643,1
DA:644,1
DA:645,0
DA:646,0
DA:647,0
DA:648,1
DA:651,1
DA:652,1
DA:653,1
DA:654,1
DA:655,1
DA:656,1
DA:657,1
DA:658,1
DA:659,1
DA:660,1
DA:661,1
DA:662,1
DA:663,0
DA:664,0
DA:665,0
DA:666,0
DA:667,0
DA:668,0
DA:669,0
DA:670,0
DA:671,1
DA:679,1
DA:680,1
DA:681,1
DA:682,1
DA:683,1
DA:684,1
DA:685,1
DA:686,1
DA:687,1
DA:690,1
DA:691,1
DA:692,1
DA:693,0
DA:697,1
DA:698,1
DA:699,1
DA:700,1
DA:701,0
DA:703,1
DA:704,1
DA:705,1
DA:706,0
DA:708,1
DA:711,1
DA:712,1
DA:713,1
DA:714,1
DA:715,1
DA:716,1
DA:717,1
DA:720,1
DA:721,1
DA:722,1
DA:723,1
DA:724,1
DA:725,1
DA:726,1
DA:729,1
DA:730,1
DA:731,1
DA:732,0
DA:734,1
DA:742,1
DA:743,1
DA:744,1
DA:745,1
DA:746,1
DA:747,1
DA:748,1
DA:749,1
DA:750,1
DA:753,1
DA:754,1
DA:755,1
DA:756,1
DA:757,1
DA:758,1
DA:759,1
DA:760,1
DA:761,1
DA:764,1
DA:765,1
DA:766,1
DA:767,1
DA:768,1
DA:769,1
DA:770,1
DA:771,1
DA:772,1
DA:775,1
DA:776,1
DA:777,1
DA:778,1
DA:779,1
DA:780,1
DA:781,1
DA:782,1
DA:783,1
DA:784,1
DA:785,1
DA:788,1
DA:789,1
DA:790,1
DA:791,1
DA:792,1
DA:793,1
DA:794,1
DA:795,1
DA:796,1
DA:797,1
DA:798,1
DA:799,1
DA:802,1
DA:803,1
DA:804,1
DA:805,1
DA:806,1
DA:807,1
DA:808,1
DA:809,1
DA:810,1
DA:811,1
DA:812,1
DA:815,1
DA:816,1
DA:817,1
DA:818,1
DA:819,1
DA:820,1
DA:821,1
DA:822,1
DA:823,1
DA:824,1
DA:825,1
DA:828,1
DA:829,1
DA:830,1
DA:831,1
DA:832,1
DA:833,1
DA:836,1
DA:837,1
DA:838,1
DA:839,1
DA:840,1
DA:841,1
DA:844,1
DA:845,1
DA:846,1
DA:847,1
DA:848,1
DA:849,1
DA:852,1
DA:853,1
DA:854,1
DA:855,1
DA:856,1
DA:857,1
DA:860,1
DA:861,1
DA:862,1
DA:863,1
DA:864,1
DA:865,1
DA:868,1
DA:869,1
DA:870,1
DA:871,1
DA:872,1
DA:873,1
DA:874,1
DA:875,1
DA:876,1
DA:877,1
DA:880,1
DA:881,1
DA:882,1
DA:883,1
DA:884,1
DA:885,1
DA:888,1
DA:889,1
DA:890,1
DA:891,1
DA:892,1
DA:893,1
DA:896,1
DA:897,1
DA:898,1
DA:899,1
DA:900,1
DA:901,1
DA:902,1
DA:905,1
DA:906,1
DA:907,1
DA:908,1
DA:909,1
DA:910,1
DA:913,1
DA:914,1
DA:915,1
DA:916,1
DA:917,1
DA:918,1
DA:921,1
DA:922,1
DA:923,1
DA:924,1
DA:925,1
DA:926,1
DA:927,1
DA:928,1
DA:931,1
DA:932,1
DA:933,1
DA:934,1
DA:935,1
DA:936,1
DA:937,1
DA:938,1
DA:939,1
DA:940,1
DA:941,1
DA:942,1
DA:943,1
DA:944,1
DA:945,1
DA:948,1
DA:949,1
DA:950,1
DA:951,1
DA:952,1
DA:953,1
DA:960,1
DA:961,1
DA:962,1
DA:963,1
DA:964,1
DA:965,1
DA:966,1
DA:967,1
DA:968,1
DA:969,1
DA:970,1
DA:971,1
DA:972,1
DA:973,1
DA:974,1
DA:976,0
DA:978,1
DA:981,1
DA:982,1
DA:983,1
DA:984,1
DA:985,1
DA:986,1
DA:987,1
DA:988,1
DA:989,1
DA:990,1
DA:991,1
DA:992,1
DA:993,1
DA:994,1
DA:995,1
DA:998,1
DA:999,1
DA:1000,1
DA:1001,1
DA:1002,1
DA:1003,1
DA:1004,1
DA:1005,1
DA:1008,1
DA:1009,1
DA:1010,1
DA:1011,1
DA:1012,1
DA:1015,1
DA:1016,1
DA:1017,1
DA:1018,1
DA:1019,1
DA:1020,1
DA:1021,1
DA:1022,1
DA:1023,1
DA:1024,1
DA:1025,1
DA:1026,1
DA:1027,1
DA:1028,1
DA:1029,1
DA:1030,1
DA:1031,1
DA:1032,1
DA:1033,1
DA:1034,0
DA:1035,1
DA:1038,1
DA:1039,1
DA:1040,1
DA:1041,1
DA:1042,1
DA:1043,1
DA:1044,1
DA:1045,1
DA:1046,1
DA:1047,1
DA:1048,1
DA:1049,1
DA:1050,1
DA:1051,1
DA:1052,1
DA:1053,1
DA:1054,0
DA:1055,1
DA:1062,1
DA:1063,1
DA:1064,1
DA:1065,1
DA:1066,1
DA:1068,1
DA:1069,1
DA:1072,1
DA:1073,1
DA:1074,1
DA:1075,1
DA:1076,1
DA:1077,1
DA:1078,1
DA:1079,1
DA:1080,1
DA:1081,1
DA:1082,1
DA:1085,1
DA:1086,1
DA:1087,1
DA:1088,1
DA:1089,1
DA:1090,1
DA:1091,1
DA:1092,1
DA:1093,1
DA:1094,1
DA:1095,1
DA:1096,1
DA:1097,1
DA:1098,1
DA:1099,1
DA:1100,1
DA:1101,1
DA:1102,1
DA:1103,1
DA:1104,1
DA:1105,1
DA:1106,1
DA:1107,1
DA:1108,1
DA:1109,1
DA:1110,1
DA:1111,1
DA:1112,1
DA:1113,1
DA:1116,1
DA:1117,1
DA:1118,1
DA:1119,1
DA:1120,1
DA:1121,1
DA:1122,1
DA:1123,1
DA:1124,1
DA:1127,1
DA:1128,1
DA:1129,1
DA:1130,1
DA:1131,1
DA:1132,1
DA:1133,1
DA:1134,1
DA:1135,1
DA:1136,1
DA:1137,1
DA:1138,1
DA:1139,1
DA:1140,1
DA:1141,1
DA:1142,1
DA:1143,1
DA:1144,1
DA:1145,1
DA:1146,1
DA:1147,1
DA:1148,1
DA:1149,1
DA:1150,1
DA:1151,1
DA:1152,1
DA:1153,1
DA:1154,1
DA:1155,1
DA:1156,1
DA:1157,1
DA:1160,1
DA:1161,1
DA:1162,1
DA:1163,1
DA:1164,1
DA:1165,1
DA:1166,1
DA:1169,1
DA:1170,1
DA:1171,1
DA:1172,1
DA:1173,1
DA:1174,1
DA:1175,1
DA:1176,1
DA:1177,1
DA:1178,1
DA:1179,1
DA:1180,1
DA:1181,1
DA:1182,1
DA:1183,1
DA:1184,1
DA:1185,1
DA:1186,1
DA:1187,1
DA:1188,1
DA:1189,1
DA:1190,1
DA:1191,1
DA:1192,1
DA:1193,1
DA:1194,1
DA:1195,1
DA:1196,1
DA:1197,1
DA:1200,1
DA:1201,1
DA:1202,1
DA:1203,1
DA:1204,1
DA:1206,5
DA:1207,1
DA:1208,1
DA:1211,1
DA:1212,1
DA:1213,1
DA:1214,1
DA:1215,1
DA:1216,1
DA:1217,1
DA:1218,1
DA:1221,1
DA:1222,1
DA:1223,1
DA:1224,1
DA:1226,1
DA:1227,1
DA:1228,1
DA:1229,1
DA:1230,1
DA:1231,1
DA:1238,1
DA:1239,1
DA:1240,1
DA:1241,1
DA:1242,1
DA:1243,1
DA:1244,1
DA:1245,1
DA:1248,1
DA:1249,1
DA:1250,1
DA:1251,1
DA:1252,1
DA:1255,1
DA:1256,1
DA:1257,1
DA:1259,1
DA:1260,1
DA:1261,1
DA:1262,1
DA:1263,1
DA:1264,1
DA:1265,1
DA:1266,1
DA:1267,1
DA:1268,1
DA:1269,1
DA:1270,1
DA:1271,1
DA:1272,1
DA:1275,1
DA:1276,1
DA:1277,1
DA:1278,1
DA:1279,1
DA:1280,1
DA:1281,1
DA:1282,1
DA:1283,1
DA:1284,1
DA:1285,1
DA:1286,1
DA:1287,1
DA:1288,1
DA:1289,1
DA:1292,1
DA:1293,1
DA:1294,1
DA:1295,1
DA:1296,1
DA:1297,1
DA:1298,1
DA:1299,1
DA:1300,1
DA:1301,1
DA:1302,1
DA:1303,1
DA:1304,1
DA:1305,1
DA:1306,1
DA:1307,1
DA:1314,1
DA:1315,1
DA:1316,1
DA:1317,1
DA:1318,1
DA:1319,1
DA:1320,1
DA:1323,1
DA:1324,1
DA:1325,1
DA:1326,1
DA:1327,1
DA:1328,1
DA:1329,1
DA:1332,1
DA:1333,1
DA:1334,1
DA:1335,1
DA:1336,1
DA:1337,1
DA:1338,1
DA:1341,1
DA:1342,1
DA:1343,1
DA:1344,1
DA:1345,1
DA:1348,1
DA:1349,1
DA:1350,1
DA:1351,1
DA:1352,1
DA:1353,1
DA:1354,1
DA:1357,1
DA:1358,1
DA:1359,1
DA:1360,1
DA:1361,1
DA:1362,1
DA:1363,1
BRF:0
BRH:0
LF:1012
LH:982
end_of_record
SF:/Users/shutoide/Developer/lazy-image/src/engine/api.rs
FN:567,_RNCNvMNtNtCs2c7XeETP86L_10lazy_image6engine3apiNtB4_11ImageEngine14ensure_decoded0B8_
FN:582,_RNCNvMNtNtCs2c7XeETP86L_10lazy_image6engine3apiNtB4_11ImageEngine14ensure_decodeds0_0B8_
FN:581,_RNCNvMNtNtCs2c7XeETP86L_10lazy_image6engine3apiNtB4_11ImageEngine14ensure_decodeds_0B8_
FN:561,_RNvMNtNtCs2c7XeETP86L_10lazy_image6engine3apiNtB2_11ImageEngine14ensure_decoded
FN:545,_RNvMNtNtCs2c7XeETP86L_10lazy_image6engine3apiNtB2_11ImageEngine19ensure_source_slice
FN:593,_RNCNvNtNtNtCs7xzLeE8dEzx_10lazy_image6engine3api5tests17create_test_image0B9_
FN:592,_RNvNtNtNtCs7xzLeE8dEzx_10lazy_image6engine3api5tests17create_test_image
FN:599,_RNvNtNtNtCs7xzLeE8dEzx_10lazy_image6engine3api5testss_54fast_resize_owned_returns_error_instead_of_dummy_image
FN:567,_RNCNvMNtNtCs7xzLeE8dEzx_10lazy_image6engine3apiNtB4_11ImageEngine14ensure_decoded0B8_
FN:582,_RNCNvMNtNtCs7xzLeE8dEzx_10lazy_image6engine3apiNtB4_11ImageEngine14ensure_decodeds0_0B8_
FN:581,_RNCNvMNtNtCs7xzLeE8dEzx_10lazy_image6engine3apiNtB4_11ImageEngine14ensure_decodeds_0B8_
FN:561,_RNvMNtNtCs7xzLeE8dEzx_10lazy_image6engine3apiNtB2_11ImageEngine14ensure_decoded
FN:545,_RNvMNtNtCs7xzLeE8dEzx_10lazy_image6engine3apiNtB2_11ImageEngine19ensure_source_slice
FNDA:0,_RNCNvMNtNtCs2c7XeETP86L_10lazy_image6engine3apiNtB4_11ImageEngine14ensure_decoded0B8_
FNDA:0,_RNCNvMNtNtCs2c7XeETP86L_10lazy_image6engine3apiNtB4_11ImageEngine14ensure_decodeds0_0B8_
FNDA:0,_RNCNvMNtNtCs2c7XeETP86L_10lazy_image6engine3apiNtB4_11ImageEngine14ensure_decodeds_0B8_
FNDA:0,_RNvMNtNtCs2c7XeETP86L_10lazy_image6engine3apiNtB2_11ImageEngine14ensure_decoded
FNDA:0,_RNvMNtNtCs2c7XeETP86L_10lazy_image6engine3apiNtB2_11ImageEngine19ensure_source_slice
FNDA:1,_RNCNvNtNtNtCs7xzLeE8dEzx_10lazy_image6engine3api5tests17create_test_image0B9_
FNDA:1,_RNvNtNtNtCs7xzLeE8dEzx_10lazy_image6engine3api5tests17create_test_image
FNDA:1,_RNvNtNtNtCs7xzLeE8dEzx_10lazy_image6engine3api5testss_54fast_resize_owned_returns_error_instead_of_dummy_image
FNDA:0,_RNCNvMNtNtCs7xzLeE8dEzx_10lazy_image6engine3apiNtB4_11ImageEngine14ensure_decoded0B8_
FNDA:0,_RNCNvMNtNtCs7xzLeE8dEzx_10lazy_image6engine3apiNtB4_11ImageEngine14ensure_decodeds0_0B8_
FNDA:0,_RNCNvMNtNtCs7xzLeE8dEzx_10lazy_image6engine3apiNtB4_11ImageEngine14ensure_decodeds_0B8_
FNDA:0,_RNvMNtNtCs7xzLeE8dEzx_10lazy_image6engine3apiNtB2_11ImageEngine14ensure_decoded
FNDA:0,_RNvMNtNtCs7xzLeE8dEzx_10lazy_image6engine3apiNtB2_11ImageEngine19ensure_source_slice
FNF:8
FNH:3
DA:545,0
DA:547,0
DA:548,0
DA:550,0
DA:551,0
DA:552,0
DA:553,0
DA:554,0
DA:555,0
DA:556,0
DA:557,0
DA:561,0
DA:562,0
DA:564,0
DA:566,0
DA:567,0
DA:570,0
DA:571,0
DA:574,0
DA:575,0
DA:579,0
DA:580,0
DA:581,0
DA:582,0
DA:583,0
DA:592,1
DA:593,1
DA:594,1
DA:595,1
DA:596,1
DA:599,1
DA:600,1
DA:601,1
DA:602,1
DA:603,1
DA:604,1
DA:605,1
BRF:0
BRH:0
LF:42
LH:14
end_of_record
SF:/Users/shutoide/Developer/lazy-image/src/engine/decoder.rs
FN:88,_RNvNtNtCs2c7XeETP86L_10lazy_image6engine7decoder16check_dimensions
FN:29,_RNvNtNtCs2c7XeETP86L_10lazy_image6engine7decoder16to_decoder_error
FN:38,_RNvNtNtCs2c7XeETP86L_10lazy_image6engine7decoder19decode_jpeg_mozjpeg
FN:41,_RNCNCNvNtNtCs2c7XeETP86L_10lazy_image6engine7decoder19decode_jpeg_mozjpeg00B9_
FN:62,_RNCNCNvNtNtCs2c7XeETP86L_10lazy_image6engine7decoder19decode_jpeg_mozjpeg0s0_0B9_
FN:72,_RNCNCNvNtNtCs2c7XeETP86L_10lazy_image6engine7decoder19decode_jpeg_mozjpeg0s1_0B9_
FN:46,_RNCNCNvNtNtCs2c7XeETP86L_10lazy_image6engine7decoder19decode_jpeg_mozjpeg0s_0B9_
FN:39,_RNCNvNtNtCs2c7XeETP86L_10lazy_image6engine7decoder19decode_jpeg_mozjpeg0B7_
FN:88,_RNvNtNtCs7xzLeE8dEzx_10lazy_image6engine7decoder16check_dimensions
FN:29,_RNvNtNtCs7xzLeE8dEzx_10lazy_image6engine7decoder16to_decoder_error
FN:38,_RNvNtNtCs7xzLeE8dEzx_10lazy_image6engine7decoder19decode_jpeg_mozjpeg
FN:41,_RNCNCNvNtNtCs7xzLeE8dEzx_10lazy_image6engine7decoder19decode_jpeg_mozjpeg00B9_
FN:62,_RNCNCNvNtNtCs7xzLeE8dEzx_10lazy_image6engine7decoder19decode_jpeg_mozjpeg0s0_0B9_
FN:72,_RNCNCNvNtNtCs7xzLeE8dEzx_10lazy_image6engine7decoder19decode_jpeg_mozjpeg0s1_0B9_
FN:46,_RNCNCNvNtNtCs7xzLeE8dEzx_10lazy_image6engine7decoder19decode_jpeg_mozjpeg0s_0B9_
FN:39,_RNCNvNtNtCs7xzLeE8dEzx_10lazy_image6engine7decoder19decode_jpeg_mozjpeg0B7_
FNDA:7,_RNvNtNtCs2c7XeETP86L_10lazy_image6engine7decoder16check_dimensions
FNDA:6,_RNvNtNtCs2c7XeETP86L_10lazy_image6engine7decoder16to_decoder_error
FNDA:3,_RNvNtNtCs2c7XeETP86L_10lazy_image6engine7decoder19decode_jpeg_mozjpeg
FNDA:2,_RNCNCNvNtNtCs2c7XeETP86L_10lazy_image6engine7decoder19decode_jpeg_mozjpeg00B9_
FNDA:0,_RNCNCNvNtNtCs2c7XeETP86L_10lazy_image6engine7decoder19decode_jpeg_mozjpeg0s0_0B9_
FNDA:0,_RNCNCNvNtNtCs2c7XeETP86L_10lazy_image6engine7decoder19decode_jpeg_mozjpeg0s1_0B9_
FNDA:0,_RNCNCNvNtNtCs2c7XeETP86L_10lazy_image6engine7decoder19decode_jpeg_mozjpeg0s_0B9_
FNDA:3,_RNCNvNtNtCs2c7XeETP86L_10lazy_image6engine7decoder19decode_jpeg_mozjpeg0B7_
FNDA:10,_RNvNtNtCs7xzLeE8dEzx_10lazy_image6engine7decoder16check_dimensions
FNDA:6,_RNvNtNtCs7xzLeE8dEzx_10lazy_image6engine7decoder16to_decoder_error
FNDA:2,_RNvNtNtCs7xzLeE8dEzx_10lazy_image6engine7decoder19decode_jpeg_mozjpeg
FNDA:1,_RNCNCNvNtNtCs7xzLeE8dEzx_10lazy_image6engine7decoder19decode_jpeg_mozjpeg00B9_
FNDA:0,_RNCNCNvNtNtCs7xzLeE8dEzx_10lazy_image6engine7decoder19decode_jpeg_mozjpeg0s0_0B9_
FNDA:0,_RNCNCNvNtNtCs7xzLeE8dEzx_10lazy_image6engine7decoder19decode_jpeg_mozjpeg0s1_0B9_
FNDA:0,_RNCNCNvNtNtCs7xzLeE8dEzx_10lazy_image6engine7decoder19decode_jpeg_mozjpeg0s_0B9_
FNDA:2,_RNCNvNtNtCs7xzLeE8dEzx_10lazy_image6engine7decoder19decode_jpeg_mozjpeg0B7_
FNF:8
FNH:5
DA:29,12
DA:30,12
DA:31,12
DA:38,5
DA:39,5
DA:40,5
DA:41,5
DA:44,2
DA:45,2
DA:46,2
DA:48,2
DA:49,2
DA:50,2
DA:51,2
DA:52,2
DA:53,0
DA:54,0
DA:55,0
DA:56,0
DA:57,2
DA:60,2
DA:61,2
DA:62,2
DA:67,2
DA:71,2
DA:72,2
DA:74,2
DA:75,5
DA:77,5
DA:78,2
DA:79,3
DA:80,0
DA:81,0
DA:82,0
DA:84,5
DA:88,17
DA:90,17
DA:91,4
DA:92,4
DA:93,4
DA:94,4
DA:95,13
DA:96,13
DA:97,13
DA:98,5
DA:99,5
DA:100,5
DA:101,8
DA:102,8
DA:103,17
BRF:0
BRH:0
LF:56
LH:46
end_of_record
SF:/Users/shutoide/Developer/lazy-image/src/engine/encoder.rs
FN:290,_RNCNvNtNtCs2c7XeETP86L_10lazy_image6engine7encoder10encode_png0B7_
FN:522,_RNCNvNtNtCs2c7XeETP86L_10lazy_image6engine7encoder11encode_avif0B7_
FN:213,_RNCNvNtNtCs2c7XeETP86L_10lazy_image6engine7encoder11encode_jpeg0B7_
FN:230,_RNCNvNtNtCs2c7XeETP86L_10lazy_image6engine7encoder11encode_jpegs0_0B7_
FN:222,_RNCNvNtNtCs2c7XeETP86L_10lazy_image6engine7encoder11encode_jpegs_0B7_
FN:375,_RNCNvNtNtCs2c7XeETP86L_10lazy_image6engine7encoder11encode_webp0B7_
FN:391,_RNCNvNtNtCs2c7XeETP86L_10lazy_image6engine7encoder11encode_webps_0B7_
FN:312,_RNCNvNtNtCs2c7XeETP86L_10lazy_image6engine7encoder13embed_icc_png0B7_
FN:330,_RNCNvNtNtCs2c7XeETP86L_10lazy_image6engine7encoder13embed_icc_pngs0_0B7_
FN:347,_RNCNvNtNtCs2c7XeETP86L_10lazy_image6engine7encoder13embed_icc_pngs1_0B7_
FN:324,_RNCNvNtNtCs2c7XeETP86L_10lazy_image6engine7encoder13embed_icc_pngs_0B7_
FN:253,_RNCNvNtNtCs2c7XeETP86L_10lazy_image6engine7encoder14embed_icc_jpeg0B7_
FN:276,_RNCNvNtNtCs2c7XeETP86L_10lazy_image6engine7encoder14embed_icc_jpegs_0B7_
FN:413,_RNCNvNtNtCs2c7XeETP86L_10lazy_image6engine7encoder14embed_icc_webp0B7_
FN:424,_RNCNvNtNtCs2c7XeETP86L_10lazy_image6engine7encoder14embed_icc_webps_0B7_
FN:98,_RNvMNtNtCs2c7XeETP86L_10lazy_image6engine7encoderNtB2_15QualitySettings10avif_speed
FN:49,_RNvMNtNtCs2c7XeETP86L_10lazy_image6engine7encoderNtB2_15QualitySettings11webp_method
FN:67,_RNvMNtNtCs2c7XeETP86L_10lazy_image6engine7encoderNtB2_15QualitySettings17webp_sns_strength
FN:61,_RNvMNtNtCs2c7XeETP86L_10lazy_image6engine7encoderNtB2_15QualitySettings18webp_preprocessing
FN:77,_RNvMNtNtCs2c7XeETP86L_10lazy_image6engine7encoderNtB2_15QualitySettings20webp_filter_strength
FN:87,_RNvMNtNtCs2c7XeETP86L_10lazy_image6engine7encoderNtB2_15QualitySettings21webp_filter_sharpness
FN:41,_RNvMNtNtCs2c7XeETP86L_10lazy_image6engine7encoderNtB2_15QualitySettings3new
FN:55,_RNvMNtNtCs2c7XeETP86L_10lazy_image6engine7encoderNtB2_15QualitySettings9webp_pass
FN:287,_RNvNtNtCs2c7XeETP86L_10lazy_image6engine7encoder10encode_png
FN:443,_RNvNtNtCs2c7XeETP86L_10lazy_image6engine7encoder11encode_avif
FN:112,_RNvNtNtCs2c7XeETP86L_10lazy_image6engine7encoder11encode_jpeg
FN:359,_RNvNtNtCs2c7XeETP86L_10lazy_image6engine7encoder11encode_webp
FN:306,_RNvNtNtCs2c7XeETP86L_10lazy_image6engine7encoder13embed_icc_png
FN:249,_RNvNtNtCs2c7XeETP86L_10lazy_image6engine7encoder14embed_icc_jpeg
FN:409,_RNvNtNtCs2c7XeETP86L_10lazy_image6engine7encoder14embed_icc_webp
FN:31,_RNvNtNtCs2c7XeETP86L_10lazy_image6engine7encoder16to_encoder_error
FN:98,_RNvMNtNtCs7xzLeE8dEzx_10lazy_image6engine7encoderNtB2_15QualitySettings10avif_speed
FN:49,_RNvMNtNtCs7xzLeE8dEzx_10lazy_image6engine7encoderNtB2_15QualitySettings11webp_method
FN:67,_RNvMNtNtCs7xzLeE8dEzx_10lazy_image6engine7encoderNtB2_15QualitySettings17webp_sns_strength
FN:61,_RNvMNtNtCs7xzLeE8dEzx_10lazy_image6engine7encoderNtB2_15QualitySettings18webp_preprocessing
FN:77,_RNvMNtNtCs7xzLeE8dEzx_10lazy_image6engine7encoderNtB2_15QualitySettings20webp_filter_strength
FN:87,_RNvMNtNtCs7xzLeE8dEzx_10lazy_image6engine7encoderNtB2_15QualitySettings21webp_filter_sharpness
FN:41,_RNvMNtNtCs7xzLeE8dEzx_10lazy_image6engine7encoderNtB2_15QualitySettings3new
FN:55,_RNvMNtNtCs7xzLeE8dEzx_10lazy_image6engine7encoderNtB2_15QualitySettings9webp_pass
FN:287,_RNvNtNtCs7xzLeE8dEzx_10lazy_image6engine7encoder10encode_png
FN:443,_RNvNtNtCs7xzLeE8dEzx_10lazy_image6engine7encoder11encode_avif
FN:112,_RNvNtNtCs7xzLeE8dEzx_10lazy_image6engine7encoder11encode_jpeg
FN:359,_RNvNtNtCs7xzLeE8dEzx_10lazy_image6engine7encoder11encode_webp
FN:306,_RNvNtNtCs7xzLeE8dEzx_10lazy_image6engine7encoder13embed_icc_png
FN:249,_RNvNtNtCs7xzLeE8dEzx_10lazy_image6engine7encoder14embed_icc_jpeg
FN:409,_RNvNtNtCs7xzLeE8dEzx_10lazy_image6engine7encoder14embed_icc_webp
FN:31,_RNvNtNtCs7xzLeE8dEzx_10lazy_image6engine7encoder16to_encoder_error
FN:552,_RNvNtNtNtCs7xzLeE8dEzx_10lazy_image6engine7encoder5tests17create_test_image
FN:558,_RNvNtNtNtCs7xzLeE8dEzx_10lazy_image6engine7encoder5tests22create_test_image_rgba
FN:712,_RNCNvNtNtNtNtCs7xzLeE8dEzx_10lazy_image6engine7encoder5tests12encode_testss_36test_encode_avif_produces_valid_avif0Bb_
FN:553,_RNCNvNtNtNtCs7xzLeE8dEzx_10lazy_image6engine7encoder5tests17create_test_image0B9_
FN:559,_RNCNvNtNtNtCs7xzLeE8dEzx_10lazy_image6engine7encoder5tests22create_test_image_rgba0B9_
FN:290,_RNCNvNtNtCs7xzLeE8dEzx_10lazy_image6engine7encoder10encode_png0B7_
FN:522,_RNCNvNtNtCs7xzLeE8dEzx_10lazy_image6engine7encoder11encode_avif0B7_
FN:213,_RNCNvNtNtCs7xzLeE8dEzx_10lazy_image6engine7encoder11encode_jpeg0B7_
FN:230,_RNCNvNtNtCs7xzLeE8dEzx_10lazy_image6engine7encoder11encode_jpegs0_0B7_
FN:222,_RNCNvNtNtCs7xzLeE8dEzx_10lazy_image6engine7encoder11encode_jpegs_0B7_
FN:375,_RNCNvNtNtCs7xzLeE8dEzx_10lazy_image6engine7encoder11encode_webp0B7_
FN:391,_RNCNvNtNtCs7xzLeE8dEzx_10lazy_image6engine7encoder11encode_webps_0B7_
FN:312,_RNCNvNtNtCs7xzLeE8dEzx_10lazy_image6engine7encoder13embed_icc_png0B7_
FN:330,_RNCNvNtNtCs7xzLeE8dEzx_10lazy_image6engine7encoder13embed_icc_pngs0_0B7_
FN:347,_RNCNvNtNtCs7xzLeE8dEzx_10lazy_image6engine7encoder13embed_icc_pngs1_0B7_
FN:324,_RNCNvNtNtCs7xzLeE8dEzx_10lazy_image6engine7encoder13embed_icc_pngs_0B7_
FN:253,_RNCNvNtNtCs7xzLeE8dEzx_10lazy_image6engine7encoder14embed_icc_jpeg0B7_
FN:276,_RNCNvNtNtCs7xzLeE8dEzx_10lazy_image6engine7encoder14embed_icc_jpegs_0B7_
FN:413,_RNCNvNtNtCs7xzLeE8dEzx_10lazy_image6engine7encoder14embed_icc_webp0B7_
FN:424,_RNCNvNtNtCs7xzLeE8dEzx_10lazy_image6engine7encoder14embed_icc_webps_0B7_
FN:727,_RNvNtNtNtNtCs7xzLeE8dEzx_10lazy_image6engine7encoder5tests12encode_testss_22test_encode_rgba_image
FN:633,_RNvNtNtNtNtCs7xzLeE8dEzx_10lazy_image6engine7encoder5tests12encode_testss_24test_encode_png_with_icc
FN:591,_RNvNtNtNtNtCs7xzLeE8dEzx_10lazy_image6engine7encoder5tests12encode_testss_25test_encode_jpeg_with_icc
FN:675,_RNvNtNtNtNtCs7xzLeE8dEzx_10lazy_image6engine7encoder5tests12encode_testss_25test_encode_webp_with_icc
FN:622,_RNvNtNtNtNtCs7xzLeE8dEzx_10lazy_image6engine7encoder5tests12encode_testss_34test_encode_png_produces_valid_png
FN:706,_RNvNtNtNtNtCs7xzLeE8dEzx_10lazy_image6engine7encoder5tests12encode_testss_36test_encode_avif_produces_valid_avif
FN:568,_RNvNtNtNtNtCs7xzLeE8dEzx_10lazy_image6engine7encoder5tests12encode_testss_36test_encode_jpeg_produces_valid_jpeg
FN:666,_RNvNtNtNtNtCs7xzLeE8dEzx_10lazy_image6engine7encoder5tests12encode_testss_36test_encode_webp_produces_valid_webp
FN:717,_RNvNtNtNtNtCs7xzLeE8dEzx_10lazy_image6engine7encoder5tests12encode_testss_37test_encode_avif_quality_affects_size
FN:578,_RNvNtNtNtNtCs7xzLeE8dEzx_10lazy_image6engine7encoder5tests12encode_testss_37test_encode_jpeg_quality_affects_size
FNDA:0,_RNCNvNtNtCs2c7XeETP86L_10lazy_image6engine7encoder10encode_png0B7_
FNDA:3,_RNCNvNtNtCs2c7XeETP86L_10lazy_image6engine7encoder11encode_avif0B7_
FNDA:0,_RNCNvNtNtCs2c7XeETP86L_10lazy_image6engine7encoder11encode_jpeg0B7_
FNDA:0,_RNCNvNtNtCs2c7XeETP86L_10lazy_image6engine7encoder11encode_jpegs0_0B7_
FNDA:0,_RNCNvNtNtCs2c7XeETP86L_10lazy_image6engine7encoder11encode_jpegs_0B7_
FNDA:0,_RNCNvNtNtCs2c7XeETP86L_10lazy_image6engine7encoder11encode_webp0B7_
FNDA:1,_RNCNvNtNtCs2c7XeETP86L_10lazy_image6engine7encoder11encode_webps_0B7_
FNDA:0,_RNCNvNtNtCs2c7XeETP86L_10lazy_image6engine7encoder13embed_icc_png0B7_
FNDA:0,_RNCNvNtNtCs2c7XeETP86L_10lazy_image6engine7encoder13embed_icc_pngs0_0B7_
FNDA:0,_RNCNvNtNtCs2c7XeETP86L_10lazy_image6engine7encoder13embed_icc_pngs1_0B7_
FNDA:0,_RNCNvNtNtCs2c7XeETP86L_10lazy_image6engine7encoder13embed_icc_pngs_0B7_
FNDA:0,_RNCNvNtNtCs2c7XeETP86L_10lazy_image6engine7encoder14embed_icc_jpeg0B7_
FNDA:0,_RNCNvNtNtCs2c7XeETP86L_10lazy_image6engine7encoder14embed_icc_jpegs_0B7_
FNDA:0,_RNCNvNtNtCs2c7XeETP86L_10lazy_image6engine7encoder14embed_icc_webp0B7_
FNDA:0,_RNCNvNtNtCs2c7XeETP86L_10lazy_image6engine7encoder14embed_icc_webps_0B7_
FNDA:3,_RNvMNtNtCs2c7XeETP86L_10lazy_image6engine7encoderNtB2_15QualitySettings10avif_speed
FNDA:4,_RNvMNtNtCs2c7XeETP86L_10lazy_image6engine7encoderNtB2_15QualitySettings11webp_method
FNDA:4,_RNvMNtNtCs2c7XeETP86L_10lazy_image6engine7encoderNtB2_15QualitySettings17webp_sns_strength
FNDA:4,_RNvMNtNtCs2c7XeETP86L_10lazy_image6engine7encoderNtB2_15QualitySettings18webp_preprocessing
FNDA:4,_RNvMNtNtCs2c7XeETP86L_10lazy_image6engine7encoderNtB2_15QualitySettings20webp_filter_strength
FNDA:4,_RNvMNtNtCs2c7XeETP86L_10lazy_image6engine7encoderNtB2_15QualitySettings21webp_filter_sharpness
FNDA:7,_RNvMNtNtCs2c7XeETP86L_10lazy_image6engine7encoderNtB2_15QualitySettings3new
FNDA:4,_RNvMNtNtCs2c7XeETP86L_10lazy_image6engine7encoderNtB2_15QualitySettings9webp_pass
FNDA:1,_RNvNtNtCs2c7XeETP86L_10lazy_image6engine7encoder10encode_png
FNDA:3,_RNvNtNtCs2c7XeETP86L_10lazy_image6engine7encoder11encode_avif
FNDA:6,_RNvNtNtCs2c7XeETP86L_10lazy_image6engine7encoder11encode_jpeg
FNDA:4,_RNvNtNtCs2c7XeETP86L_10lazy_image6engine7encoder11encode_webp
FNDA:0,_RNvNtNtCs2c7XeETP86L_10lazy_image6engine7encoder13embed_icc_png
FNDA:0,_RNvNtNtCs2c7XeETP86L_10lazy_image6engine7encoder14embed_icc_jpeg
FNDA:0,_RNvNtNtCs2c7XeETP86L_10lazy_image6engine7encoder14embed_icc_webp
FNDA:1,_RNvNtNtCs2c7XeETP86L_10lazy_image6engine7encoder16to_encoder_error
FNDA:12,_RNvMNtNtCs7xzLeE8dEzx_10lazy_image6engine7encoderNtB2_15QualitySettings10avif_speed
FNDA:10,_RNvMNtNtCs7xzLeE8dEzx_10lazy_image6engine7encoderNtB2_15QualitySettings11webp_method
FNDA:10,_RNvMNtNtCs7xzLeE8dEzx_10lazy_image6engine7encoderNtB2_15QualitySettings17webp_sns_strength
FNDA:10,_RNvMNtNtCs7xzLeE8dEzx_10lazy_image6engine7encoderNtB2_15QualitySettings18webp_preprocessing
FNDA:10,_RNvMNtNtCs7xzLeE8dEzx_10lazy_image6engine7encoderNtB2_15QualitySettings20webp_filter_strength
FNDA:10,_RNvMNtNtCs7xzLeE8dEzx_10lazy_image6engine7encoderNtB2_15QualitySettings21webp_filter_sharpness
FNDA:22,_RNvMNtNtCs7xzLeE8dEzx_10lazy_image6engine7encoderNtB2_15QualitySettings3new
FNDA:10,_RNvMNtNtCs7xzLeE8dEzx_10lazy_image6engine7encoderNtB2_15QualitySettings9webp_pass
FNDA:14,_RNvNtNtCs7xzLeE8dEzx_10lazy_image6engine7encoder10encode_png
FNDA:12,_RNvNtNtCs7xzLeE8dEzx_10lazy_image6engine7encoder11encode_avif
FNDA:18,_RNvNtNtCs7xzLeE8dEzx_10lazy_image6engine7encoder11encode_jpeg
FNDA:10,_RNvNtNtCs7xzLeE8dEzx_10lazy_image6engine7encoder11encode_webp
FNDA:10,_RNvNtNtCs7xzLeE8dEzx_10lazy_image6engine7encoder13embed_icc_png
FNDA:10,_RNvNtNtCs7xzLeE8dEzx_10lazy_image6engine7encoder14embed_icc_jpeg
FNDA:8,_RNvNtNtCs7xzLeE8dEzx_10lazy_image6engine7encoder14embed_icc_webp
FNDA:0,_RNvNtNtCs7xzLeE8dEzx_10lazy_image6engine7encoder16to_encoder_error
FNDA:9,_RNvNtNtNtCs7xzLeE8dEzx_10lazy_image6engine7encoder5tests17create_test_image
FNDA:1,_RNvNtNtNtCs7xzLeE8dEzx_10lazy_image6engine7encoder5tests22create_test_image_rgba
FNDA:5,_RNCNvNtNtNtNtCs7xzLeE8dEzx_10lazy_image6engine7encoder5tests12encode_testss_36test_encode_avif_produces_valid_avif0Bb_
FNDA:90000,_RNCNvNtNtNtCs7xzLeE8dEzx_10lazy_image6engine7encoder5tests17create_test_image0B9_
FNDA:10000,_RNCNvNtNtNtCs7xzLeE8dEzx_10lazy_image6engine7encoder5tests22create_test_image_rgba0B9_
FNDA:0,_RNCNvNtNtCs7xzLeE8dEzx_10lazy_image6engine7encoder10encode_png0B7_
FNDA:12,_RNCNvNtNtCs7xzLeE8dEzx_10lazy_image6engine7encoder11encode_avif0B7_
FNDA:0,_RNCNvNtNtCs7xzLeE8dEzx_10lazy_image6engine7encoder11encode_jpeg0B7_
FNDA:0,_RNCNvNtNtCs7xzLeE8dEzx_10lazy_image6engine7encoder11encode_jpegs0_0B7_
FNDA:0,_RNCNvNtNtCs7xzLeE8dEzx_10lazy_image6engine7encoder11encode_jpegs_0B7_
FNDA:0,_RNCNvNtNtCs7xzLeE8dEzx_10lazy_image6engine7encoder11encode_webp0B7_
FNDA:0,_RNCNvNtNtCs7xzLeE8dEzx_10lazy_image6engine7encoder11encode_webps_0B7_
FNDA:0,_RNCNvNtNtCs7xzLeE8dEzx_10lazy_image6engine7encoder13embed_icc_png0B7_
FNDA:0,_RNCNvNtNtCs7xzLeE8dEzx_10lazy_image6engine7encoder13embed_icc_pngs0_0B7_
FNDA:0,_RNCNvNtNtCs7xzLeE8dEzx_10lazy_image6engine7encoder13embed_icc_pngs1_0B7_
FNDA:0,_RNCNvNtNtCs7xzLeE8dEzx_10lazy_image6engine7encoder13embed_icc_pngs_0B7_
FNDA:0,_RNCNvNtNtCs7xzLeE8dEzx_10lazy_image6engine7encoder14embed_icc_jpeg0B7_
FNDA:0,_RNCNvNtNtCs7xzLeE8dEzx_10lazy_image6engine7encoder14embed_icc_jpegs_0B7_
FNDA:0,_RNCNvNtNtCs7xzLeE8dEzx_10lazy_image6engine7encoder14embed_icc_webp0B7_
FNDA:0,_RNCNvNtNtCs7xzLeE8dEzx_10lazy_image6engine7encoder14embed_icc_webps_0B7_
FNDA:1,_RNvNtNtNtNtCs7xzLeE8dEzx_10lazy_image6engine7encoder5tests12encode_testss_22test_encode_rgba_image
FNDA:1,_RNvNtNtNtNtCs7xzLeE8dEzx_10lazy_image6engine7encoder5tests12encode_testss_24test_encode_png_with_icc
FNDA:1,_RNvNtNtNtNtCs7xzLeE8dEzx_10lazy_image6engine7encoder5tests12encode_testss_25test_encode_jpeg_with_icc
FNDA:1,_RNvNtNtNtNtCs7xzLeE8dEzx_10lazy_image6engine7encoder5tests12encode_testss_25test_encode_webp_with_icc
FNDA:1,_RNvNtNtNtNtCs7xzLeE8dEzx_10lazy_image6engine7encoder5tests12encode_testss_34test_encode_png_produces_valid_png
FNDA:1,_RNvNtNtNtNtCs7xzLeE8dEzx_10lazy_image6engine7encoder5tests12encode_testss_36test_encode_avif_produces_valid_avif
FNDA:1,_RNvNtNtNtNtCs7xzLeE8dEzx_10lazy_image6engine7encoder5tests12encode_testss_36test_encode_jpeg_produces_valid_jpeg
FNDA:1,_RNvNtNtNtNtCs7xzLeE8dEzx_10lazy_image6engine7encoder5tests12encode_testss_36test_encode_webp_produces_valid_webp
FNDA:1,_RNvNtNtNtNtCs7xzLeE8dEzx_10lazy_image6engine7encoder5tests12encode_testss_37test_encode_avif_quality_affects_size
FNDA:1,_RNvNtNtNtNtCs7xzLeE8dEzx_10lazy_image6engine7encoder5tests12encode_testss_37test_encode_jpeg_quality_affects_size
FNF:46
FNH:33
DA:31,1
DA:32,1
DA:33,1
DA:41,29
DA:42,29
DA:43,29
DA:44,29
DA:45,29
DA:49,14
DA:50,14
DA:51,14
DA:52,14
DA:53,14
DA:55,14
DA:56,14
DA:57,14
DA:58,14
DA:59,14
DA:61,14
DA:62,14
DA:63,14
DA:64,14
DA:65,14
DA:67,14
DA:68,14
DA:69,2
DA:70,12
DA:71,11
DA:73,1
DA:75,14
DA:77,14
DA:78,14
DA:79,13
DA:80,1
DA:81,0
DA:83,1
DA:85,14
DA:87,14
DA:88,14
DA:89,2
DA:91,12
DA:93,14
DA:98,15
DA:99,15
DA:100,2
DA:101,13
DA:102,2
DA:103,11
DA:104,8
DA:106,3
DA:108,15
DA:112,24
DA:113,24
DA:114,24
DA:115,24
DA:116,24
DA:120,24
DA:121,22
DA:122,2
DA:124,24
DA:125,24
DA:126,24
DA:127,24
DA:128,24
DA:129,24
DA:130,0
DA:131,0
DA:132,0
DA:133,24
DA:134,24
DA:135,24
DA:136,24
DA:137,0
DA:138,0
DA:139,0
DA:140,0
DA:141,24
DA:142,24
DA:143,24
DA:144,24
DA:145,24
DA:146,0
DA:147,24
DA:148,24
DA:149,24
DA:150,24
DA:151,24
DA:152,24
DA:153,24
DA:154,24
DA:155,24
DA:156,24
DA:157,24
DA:158,24
DA:159,24
DA:160,24
DA:161,24
DA:162,24
DA:163,24
DA:164,24
DA:165,24
DA:166,24
DA:167,24
DA:168,24
DA:169,24
DA:170,24
DA:171,24
DA:172,24
DA:173,24
DA:174,24
DA:175,24
DA:176,24
DA:177,24
DA:178,24
DA:179,24
DA:180,24
DA:194,24
DA:195,5
DA:196,19
DA:197,15
DA:198,4
DA:199,0
DA:201,4
DA:203,24
DA:204,24
DA:205,24
DA:206,24
DA:207,24
DA:208,24
DA:209,24
DA:210,24
DA:212,24
DA:213,24
DA:214,0
DA:215,0
DA:216,0
DA:217,0
DA:218,24
DA:220,24
DA:221,2301
DA:222,2301
DA:223,0
DA:224,0
DA:225,0
DA:226,0
DA:227,2301
DA:230,24
DA:231,0
DA:232,0
DA:233,0
DA:234,0
DA:235,24
DA:237,24
DA:241,24
DA:242,10
DA:244,14
DA:246,24
DA:249,10
DA:253,10
DA:254,0
DA:255,0
DA:256,0
DA:257,10
DA:261,10
DA:262,10
DA:263,10
DA:264,10
DA:265,10
DA:266,10
DA:267,10
DA:268,10
DA:269,10
DA:270,10
DA:271,10
DA:272,10
DA:273,10
DA:274,10
DA:275,10
DA:276,10
DA:277,0
DA:278,0
DA:279,0
DA:280,0
DA:281,10
DA:283,10
DA:284,10
DA:287,15
DA:288,15
DA:289,15
DA:290,15
DA:291,0
DA:292,0
DA:293,0
DA:294,0
DA:295,15
DA:298,15
DA:299,10
DA:301,5
DA:303,15
DA:306,10
DA:312,10
DA:313,0
DA:314,0
DA:315,0
DA:316,10
DA:319,10
DA:320,10
DA:321,10
DA:322,10
DA:323,10
DA:324,10
DA:325,0
DA:326,0
DA:327,0
DA:328,0
DA:329,10
DA:330,10
DA:331,0
DA:332,0
DA:333,0
DA:334,0
DA:335,10
DA:337,10
DA:338,10
DA:339,10
DA:340,10
DA:341,10
DA:342,10
DA:343,10
DA:344,10
DA:345,10
DA:346,10
DA:347,10
DA:348,0
DA:349,0
DA:350,0
DA:351,0
DA:352,10
DA:354,10
DA:355,10
DA:359,14
DA:360,14
DA:361,14
DA:362,14
DA:363,14
DA:367,14
DA:368,14
DA:369,0
DA:371,14
DA:372,14
DA:375,14
DA:376,0
DA:377,0
DA:378,0
DA:379,14
DA:381,14
DA:382,14
DA:383,14
DA:384,14
DA:385,14
DA:386,14
DA:387,14
DA:388,14
DA:389,14
DA:391,14
DA:392,1
DA:393,1
DA:394,1
DA:395,1
DA:396,14
DA:398,13
DA:401,13
DA:402,8
DA:404,5
DA:406,14
DA:409,8
DA:413,8
DA:414,0
DA:415,0
DA:416,0
DA:417,8
DA:420,8
DA:421,8
DA:422,8
DA:423,8
DA:424,8
DA:425,0
DA:426,0
DA:427,0
DA:428,0
DA:429,8
DA:431,8
DA:432,8
DA:443,15
DA:444,15
DA:445,15
DA:446,15
DA:447,15
DA:450,15
DA:451,15
DA:452,15
DA:453,15
DA:454,15
DA:457,15
DA:458,0
DA:459,15
DA:461,15
DA:464,15
DA:465,15
DA:466,15
DA:467,15
DA:468,15
DA:469,15
DA:470,15
DA:473,15
DA:474,15
DA:475,15
DA:476,15
DA:477,15
DA:478,15
DA:481,15
DA:482,4
DA:483,11
DA:486,15
DA:487,15
DA:488,15
DA:489,15
DA:492,15
DA:495,15
DA:496,0
DA:501,0
DA:502,0
DA:503,0
DA:504,0
DA:505,0
DA:506,0
DA:507,0
DA:508,0
DA:511,15
DA:514,15
DA:521,15
DA:522,15
DA:523,15
DA:524,15
DA:525,15
DA:526,15
DA:527,15
DA:528,15
DA:529,15
DA:530,15
DA:531,15
DA:532,15
DA:533,15
DA:534,15
DA:535,15
DA:538,15
DA:541,15
DA:542,15
DA:543,15
DA:544,15
DA:552,9
DA:553,90000
DA:554,90000
DA:555,90000
DA:556,9
DA:558,1
DA:559,10000
DA:560,10000
DA:561,10000
DA:562,1
DA:568,1
DA:569,1
DA:570,1
DA:571,1
DA:572,1
DA:574,1
DA:575,1
DA:578,1
DA:579,1
DA:580,1
DA:581,1
DA:582,1
DA:583,1
DA:584,1
DA:585,1
DA:586,1
DA:587,1
DA:588,1
DA:591,1
DA:592,1
DA:593,1
DA:594,1
DA:595,1
DA:596,1
DA:597,1
DA:598,1
DA:599,1
DA:600,1
DA:601,1
DA:602,1
DA:603,1
DA:604,1
DA:605,1
DA:606,1
DA:607,1
DA:608,1
DA:609,1
DA:610,1
DA:611,1
DA:612,1
DA:613,1
DA:614,1
DA:615,1
DA:616,1
DA:617,1
DA:618,1
DA:619,1
DA:622,1
DA:623,1
DA:624,1
DA:625,1
DA:626,1
DA:627,1
DA:628,1
DA:629,1
DA:630,1
DA:633,1
DA:634,1
DA:635,1
DA:636,1
DA:637,1
DA:638,1
DA:639,1
DA:640,1
DA:641,1
DA:642,1
DA:643,1
DA:644,1
DA:645,1
DA:646,1
DA:647,1
DA:648,1
DA:649,1
DA:650,1
DA:651,1
DA:652,1
DA:653,1
DA:654,1
DA:655,1
DA:656,1
DA:657,1
DA:658,1
DA:659,1
DA:660,1
DA:661,1
DA:662,1
DA:663,1
DA:666,1
DA:667,1
DA:668,1
DA:669,1
DA:670,1
DA:671,1
DA:672,1
DA:675,1
DA:676,1
DA:677,1
DA:678,1
DA:679,1
DA:680,1
DA:681,1
DA:682,1
DA:683,1
DA:684,1
DA:685,1
DA:686,1
DA:687,1
DA:688,1
DA:689,1
DA:690,1
DA:691,1
DA:692,1
DA:693,1
DA:694,1
DA:695,1
DA:696,1
DA:697,1
DA:698,1
DA:699,1
DA:700,1
DA:701,1
DA:702,1
DA:703,1
DA:706,1
DA:707,1
DA:708,1
DA:709,1
DA:710,1
DA:712,5
DA:713,1
DA:714,1
DA:717,1
DA:718,1
DA:719,1
DA:720,1
DA:721,1
DA:722,1
DA:723,1
DA:724,1
DA:727,1
DA:728,1
DA:729,1
DA:730,1
DA:732,1
DA:733,1
DA:734,1
DA:735,1
DA:736,1
DA:737,1
BRF:0
BRH:0
LF:553
LH:457
end_of_record
SF:/Users/shutoide/Developer/lazy-image/src/engine/io.rs
FN:224,_RNvXNvNtNtCs2c7XeETP86L_10lazy_image6engine2io21extract_icc_from_avifNtB2_16AvifDecoderGuardNtNtNtCsaTRkahAGrLL_4core3ops4drop4Drop4drop
FN:199,_RNCNvNtNtCs2c7XeETP86L_10lazy_image6engine2io20extract_icc_from_png0B7_
FN:191,_RNCNvNtNtCs2c7XeETP86L_10lazy_image6engine2io21extract_icc_from_jpeg0B7_
FN:208,_RNCNvNtNtCs2c7XeETP86L_10lazy_image6engine2io21extract_icc_from_webp0B7_
FN:45,_RNvMNtNtCs2c7XeETP86L_10lazy_image6engine2ioNtB2_6Source3len
FN:25,_RNvMNtNtCs2c7XeETP86L_10lazy_image6engine2ioNtB2_6Source4load
FN:37,_RNvMNtNtCs2c7XeETP86L_10lazy_image6engine2ioNtB2_6Source8as_bytes
FN:147,_RNvNtNtCs2c7XeETP86L_10lazy_image6engine2io12is_avif_data
FN:55,_RNvNtNtCs2c7XeETP86L_10lazy_image6engine2io19extract_icc_profile
FN:195,_RNvNtNtCs2c7XeETP86L_10lazy_image6engine2io20extract_icc_from_png
FN:88,_RNvNtNtCs2c7XeETP86L_10lazy_image6engine2io20validate_icc_profile
FN:213,_RNvNtNtCs2c7XeETP86L_10lazy_image6engine2io21extract_icc_from_avif
FN:187,_RNvNtNtCs2c7XeETP86L_10lazy_image6engine2io21extract_icc_from_jpeg
FN:203,_RNvNtNtCs2c7XeETP86L_10lazy_image6engine2io21extract_icc_from_webp
FN:587,_RNvNtNtNtNtNtCs7xzLeE8dEzx_10lazy_image6engine2io5tests9icc_tests16validation_testss_19test_validate_empty
FN:582,_RNvNtNtNtNtNtCs7xzLeE8dEzx_10lazy_image6engine2io5tests9icc_tests16validation_testss_23test_validate_too_short
FN:557,_RNvNtNtNtNtNtCs7xzLeE8dEzx_10lazy_image6engine2io5tests9icc_tests16validation_testss_23test_validate_valid_icc
FN:563,_RNvNtNtNtNtNtCs7xzLeE8dEzx_10lazy_image6engine2io5tests9icc_tests16validation_testss_27test_validate_truncated_icc
FN:571,_RNvNtNtNtNtNtCs7xzLeE8dEzx_10lazy_image6engine2io5tests9icc_tests16validation_testss_30test_validate_wrong_size_field
FN:199,_RNCNvNtNtCs7xzLeE8dEzx_10lazy_image6engine2io20extract_icc_from_png0B7_
FN:191,_RNCNvNtNtCs7xzLeE8dEzx_10lazy_image6engine2io21extract_icc_from_jpeg0B7_
FN:208,_RNCNvNtNtCs7xzLeE8dEzx_10lazy_image6engine2io21extract_icc_from_webp0B7_
FN:277,_RNvNtNtNtCs7xzLeE8dEzx_10lazy_image6engine2io5tests17create_test_image
FN:311,_RNvNtNtNtCs7xzLeE8dEzx_10lazy_image6engine2io5tests18create_minimal_png
FN:284,_RNvNtNtNtCs7xzLeE8dEzx_10lazy_image6engine2io5tests19create_minimal_jpeg
FN:320,_RNvNtNtNtCs7xzLeE8dEzx_10lazy_image6engine2io5tests19create_minimal_webp
FN:616,_RNvNtNtNtNtNtCs7xzLeE8dEzx_10lazy_image6engine2io5tests9icc_tests15roundtrip_testss_18test_png_roundtrip
FN:596,_RNvNtNtNtNtNtCs7xzLeE8dEzx_10lazy_image6engine2io5tests9icc_tests15roundtrip_testss_19test_jpeg_roundtrip
FN:640,_RNvNtNtNtNtNtCs7xzLeE8dEzx_10lazy_image6engine2io5tests9icc_tests15roundtrip_testss_19test_webp_roundtrip
FN:653,_RNvNtNtNtNtNtCs7xzLeE8dEzx_10lazy_image6engine2io5tests9icc_tests15roundtrip_testss_39test_cross_format_roundtrip_jpeg_to_png
FN:675,_RNvNtNtNtNtNtCs7xzLeE8dEzx_10lazy_image6engine2io5tests9icc_tests15roundtrip_testss_39test_cross_format_roundtrip_png_to_webp
FN:278,_RNCNvNtNtNtCs7xzLeE8dEzx_10lazy_image6engine2io5tests17create_test_image0B9_
FN:224,_RNvXNvNtNtCs7xzLeE8dEzx_10lazy_image6engine2io21extract_icc_from_avifNtB2_16AvifDecoderGuardNtNtNtCsaTRkahAGrLL_4core3ops4drop4Drop4drop
FN:37,_RNvMNtNtCs7xzLeE8dEzx_10lazy_image6engine2ioNtB2_6Source8as_bytes
FN:147,_RNvNtNtCs7xzLeE8dEzx_10lazy_image6engine2io12is_avif_data
FN:55,_RNvNtNtCs7xzLeE8dEzx_10lazy_image6engine2io19extract_icc_profile
FN:195,_RNvNtNtCs7xzLeE8dEzx_10lazy_image6engine2io20extract_icc_from_png
FN:88,_RNvNtNtCs7xzLeE8dEzx_10lazy_image6engine2io20validate_icc_profile
FN:213,_RNvNtNtCs7xzLeE8dEzx_10lazy_image6engine2io21extract_icc_from_avif
FN:187,_RNvNtNtCs7xzLeE8dEzx_10lazy_image6engine2io21extract_icc_from_jpeg
FN:203,_RNvNtNtCs7xzLeE8dEzx_10lazy_image6engine2io21extract_icc_from_webp
FN:484,_RNvNtNtNtNtCs7xzLeE8dEzx_10lazy_image6engine2io5tests9icc_tests19create_png_with_icc
FN:478,_RNvNtNtNtNtCs7xzLeE8dEzx_10lazy_image6engine2io5tests9icc_tests20create_jpeg_with_icc
FN:490,_RNvNtNtNtNtCs7xzLeE8dEzx_10lazy_image6engine2io5tests9icc_tests20create_webp_with_icc
FN:444,_RNvNtNtNtNtCs7xzLeE8dEzx_10lazy_image6engine2io5tests9icc_tests23create_minimal_srgb_icc
FN:435,_RNvNtNtNtNtCs7xzLeE8dEzx_10lazy_image6engine2io5tests9icc_testss_29test_extract_icc_profile_jpeg
FN:334,_RNvNtNtNtNtCs7xzLeE8dEzx_10lazy_image6engine2io5tests9icc_testss_35test_validate_icc_profile_too_small
FN:412,_RNvNtNtNtNtCs7xzLeE8dEzx_10lazy_image6engine2io5tests9icc_testss_36test_extract_icc_from_png_no_profile
FN:404,_RNvNtNtNtNtCs7xzLeE8dEzx_10lazy_image6engine2io5tests9icc_testss_37test_extract_icc_from_jpeg_no_profile
FN:420,_RNvNtNtNtNtCs7xzLeE8dEzx_10lazy_image6engine2io5tests9icc_testss_37test_extract_icc_from_webp_no_profile
FN:428,_RNvNtNtNtNtCs7xzLeE8dEzx_10lazy_image6engine2io5tests9icc_testss_37test_extract_icc_profile_invalid_data
FN:340,_RNvNtNtNtNtCs7xzLeE8dEzx_10lazy_image6engine2io5tests9icc_testss_39test_validate_icc_profile_minimal_valid
FN:375,_RNvNtNtNtNtCs7xzLeE8dEzx_10lazy_image6engine2io5tests9icc_testss_39test_validate_icc_profile_size_mismatch
FN:392,_RNvNtNtNtNtCs7xzLeE8dEzx_10lazy_image6engine2io5tests9icc_testss_41test_validate_icc_profile_invalid_version
FN:45,_RNvMNtNtCs7xzLeE8dEzx_10lazy_image6engine2ioNtB2_6Source3len
FN:25,_RNvMNtNtCs7xzLeE8dEzx_10lazy_image6engine2ioNtB2_6Source4load
FN:743,_RNvNtNtNtNtNtCs7xzLeE8dEzx_10lazy_image6engine2io5tests9icc_tests14avif_icc_testss_30test_avif_encoding_without_icc
FN:702,_RNvNtNtNtNtNtCs7xzLeE8dEzx_10lazy_image6engine2io5tests9icc_tests14avif_icc_testss_31test_avif_preserves_icc_profile
FN:734,_RNvNtNtNtNtNtCs7xzLeE8dEzx_10lazy_image6engine2io5tests9icc_tests14avif_icc_testss_42test_avif_encoding_with_icc_does_not_crash
FN:510,_RNvNtNtNtNtNtCs7xzLeE8dEzx_10lazy_image6engine2io5tests9icc_tests16extraction_testss_38test_extract_icc_from_png_with_profile
FN:499,_RNvNtNtNtNtNtCs7xzLeE8dEzx_10lazy_image6engine2io5tests9icc_tests16extraction_testss_39test_extract_icc_from_jpeg_with_profile
FN:526,_RNvNtNtNtNtNtCs7xzLeE8dEzx_10lazy_image6engine2io5tests9icc_tests16extraction_testss_39test_extract_icc_from_webp_with_profile
FN:547,_RNvNtNtNtNtNtCs7xzLeE8dEzx_10lazy_image6engine2io5tests9icc_tests16extraction_testss_39test_extract_icc_returns_none_for_empty
FN:534,_RNvNtNtNtNtNtCs7xzLeE8dEzx_10lazy_image6engine2io5tests9icc_tests16extraction_testss_40test_extract_icc_returns_none_for_no_icc
FN:541,_RNvNtNtNtNtNtCs7xzLeE8dEzx_10lazy_image6engine2io5tests9icc_tests16extraction_testss_43test_extract_icc_returns_none_for_non_image
FNDA:0,_RNvXNvNtNtCs2c7XeETP86L_10lazy_image6engine2io21extract_icc_from_avifNtB2_16AvifDecoderGuardNtNtNtCsaTRkahAGrLL_4core3ops4drop4Drop4drop
FNDA:0,_RNCNvNtNtCs2c7XeETP86L_10lazy_image6engine2io20extract_icc_from_png0B7_
FNDA:0,_RNCNvNtNtCs2c7XeETP86L_10lazy_image6engine2io21extract_icc_from_jpeg0B7_
FNDA:0,_RNCNvNtNtCs2c7XeETP86L_10lazy_image6engine2io21extract_icc_from_webp0B7_
FNDA:1,_RNvMNtNtCs2c7XeETP86L_10lazy_image6engine2ioNtB2_6Source3len
FNDA:0,_RNvMNtNtCs2c7XeETP86L_10lazy_image6engine2ioNtB2_6Source4load
FNDA:2,_RNvMNtNtCs2c7XeETP86L_10lazy_image6engine2ioNtB2_6Source8as_bytes
FNDA:0,_RNvNtNtCs2c7XeETP86L_10lazy_image6engine2io12is_avif_data
FNDA:0,_RNvNtNtCs2c7XeETP86L_10lazy_image6engine2io19extract_icc_profile
FNDA:0,_RNvNtNtCs2c7XeETP86L_10lazy_image6engine2io20extract_icc_from_png
FNDA:0,_RNvNtNtCs2c7XeETP86L_10lazy_image6engine2io20validate_icc_profile
FNDA:0,_RNvNtNtCs2c7XeETP86L_10lazy_image6engine2io21extract_icc_from_avif
FNDA:0,_RNvNtNtCs2c7XeETP86L_10lazy_image6engine2io21extract_icc_from_jpeg
FNDA:0,_RNvNtNtCs2c7XeETP86L_10lazy_image6engine2io21extract_icc_from_webp
FNDA:1,_RNvNtNtNtNtNtCs7xzLeE8dEzx_10lazy_image6engine2io5tests9icc_tests16validation_testss_19test_validate_empty
FNDA:1,_RNvNtNtNtNtNtCs7xzLeE8dEzx_10lazy_image6engine2io5tests9icc_tests16validation_testss_23test_validate_too_short
FNDA:1,_RNvNtNtNtNtNtCs7xzLeE8dEzx_10lazy_image6engine2io5tests9icc_tests16validation_testss_23test_validate_valid_icc
FNDA:1,_RNvNtNtNtNtNtCs7xzLeE8dEzx_10lazy_image6engine2io5tests9icc_tests16validation_testss_27test_validate_truncated_icc
FNDA:1,_RNvNtNtNtNtNtCs7xzLeE8dEzx_10lazy_image6engine2io5tests9icc_tests16validation_testss_30test_validate_wrong_size_field
FNDA:8,_RNCNvNtNtCs7xzLeE8dEzx_10lazy_image6engine2io20extract_icc_from_png0B7_
FNDA:8,_RNCNvNtNtCs7xzLeE8dEzx_10lazy_image6engine2io21extract_icc_from_jpeg0B7_
FNDA:6,_RNCNvNtNtCs7xzLeE8dEzx_10lazy_image6engine2io21extract_icc_from_webp0B7_
FNDA:16,_RNvNtNtNtCs7xzLeE8dEzx_10lazy_image6engine2io5tests17create_test_image
FNDA:1,_RNvNtNtNtCs7xzLeE8dEzx_10lazy_image6engine2io5tests18create_minimal_png
FNDA:3,_RNvNtNtNtCs7xzLeE8dEzx_10lazy_image6engine2io5tests19create_minimal_jpeg
FNDA:1,_RNvNtNtNtCs7xzLeE8dEzx_10lazy_image6engine2io5tests19create_minimal_webp
FNDA:1,_RNvNtNtNtNtNtCs7xzLeE8dEzx_10lazy_image6engine2io5tests9icc_tests15roundtrip_testss_18test_png_roundtrip
FNDA:1,_RNvNtNtNtNtNtCs7xzLeE8dEzx_10lazy_image6engine2io5tests9icc_tests15roundtrip_testss_19test_jpeg_roundtrip
FNDA:1,_RNvNtNtNtNtNtCs7xzLeE8dEzx_10lazy_image6engine2io5tests9icc_tests15roundtrip_testss_19test_webp_roundtrip
FNDA:1,_RNvNtNtNtNtNtCs7xzLeE8dEzx_10lazy_image6engine2io5tests9icc_tests15roundtrip_testss_39test_cross_format_roundtrip_jpeg_to_png
FNDA:1,_RNvNtNtNtNtNtCs7xzLeE8dEzx_10lazy_image6engine2io5tests9icc_tests15roundtrip_testss_39test_cross_format_roundtrip_png_to_webp
FNDA:110104,_RNCNvNtNtNtCs7xzLeE8dEzx_10lazy_image6engine2io5tests17create_test_image0B9_
FNDA:4,_RNvXNvNtNtCs7xzLeE8dEzx_10lazy_image6engine2io21extract_icc_from_avifNtB2_16AvifDecoderGuardNtNtNtCsaTRkahAGrLL_4core3ops4drop4Drop4drop
FNDA:1,_RNvMNtNtCs7xzLeE8dEzx_10lazy_image6engine2ioNtB2_6Source8as_bytes
FNDA:10,_RNvNtNtCs7xzLeE8dEzx_10lazy_image6engine2io12is_avif_data
FNDA:36,_RNvNtNtCs7xzLeE8dEzx_10lazy_image6engine2io19extract_icc_profile
FNDA:10,_RNvNtNtCs7xzLeE8dEzx_10lazy_image6engine2io20extract_icc_from_png
FNDA:42,_RNvNtNtCs7xzLeE8dEzx_10lazy_image6engine2io20validate_icc_profile
FNDA:4,_RNvNtNtCs7xzLeE8dEzx_10lazy_image6engine2io21extract_icc_from_avif
FNDA:14,_RNvNtNtCs7xzLeE8dEzx_10lazy_image6engine2io21extract_icc_from_jpeg
FNDA:8,_RNvNtNtCs7xzLeE8dEzx_10lazy_image6engine2io21extract_icc_from_webp
FNDA:3,_RNvNtNtNtNtCs7xzLeE8dEzx_10lazy_image6engine2io5tests9icc_tests19create_png_with_icc
FNDA:3,_RNvNtNtNtNtCs7xzLeE8dEzx_10lazy_image6engine2io5tests9icc_tests20create_jpeg_with_icc
FNDA:2,_RNvNtNtNtNtCs7xzLeE8dEzx_10lazy_image6engine2io5tests9icc_tests20create_webp_with_icc
FNDA:13,_RNvNtNtNtNtCs7xzLeE8dEzx_10lazy_image6engine2io5tests9icc_tests23create_minimal_srgb_icc
FNDA:1,_RNvNtNtNtNtCs7xzLeE8dEzx_10lazy_image6engine2io5tests9icc_testss_29test_extract_icc_profile_jpeg
FNDA:1,_RNvNtNtNtNtCs7xzLeE8dEzx_10lazy_image6engine2io5tests9icc_testss_35test_validate_icc_profile_too_small
FNDA:1,_RNvNtNtNtNtCs7xzLeE8dEzx_10lazy_image6engine2io5tests9icc_testss_36test_extract_icc_from_png_no_profile
FNDA:1,_RNvNtNtNtNtCs7xzLeE8dEzx_10lazy_image6engine2io5tests9icc_testss_37test_extract_icc_from_jpeg_no_profile
FNDA:1,_RNvNtNtNtNtCs7xzLeE8dEzx_10lazy_image6engine2io5tests9icc_testss_37test_extract_icc_from_webp_no_profile
FNDA:1,_RNvNtNtNtNtCs7xzLeE8dEzx_10lazy_image6engine2io5tests9icc_testss_37test_extract_icc_profile_invalid_data
FNDA:1,_RNvNtNtNtNtCs7xzLeE8dEzx_10lazy_image6engine2io5tests9icc_testss_39test_validate_icc_profile_minimal_valid
FNDA:1,_RNvNtNtNtNtCs7xzLeE8dEzx_10lazy_image6engine2io5tests9icc_testss_39test_validate_icc_profile_size_mismatch
FNDA:1,_RNvNtNtNtNtCs7xzLeE8dEzx_10lazy_image6engine2io5tests9icc_testss_41test_validate_icc_profile_invalid_version
FNDA:0,_RNvMNtNtCs7xzLeE8dEzx_10lazy_image6engine2ioNtB2_6Source3len
FNDA:0,_RNvMNtNtCs7xzLeE8dEzx_10lazy_image6engine2ioNtB2_6Source4load
FNDA:1,_RNvNtNtNtNtNtCs7xzLeE8dEzx_10lazy_image6engine2io5tests9icc_tests14avif_icc_testss_30test_avif_encoding_without_icc
FNDA:1,_RNvNtNtNtNtNtCs7xzLeE8dEzx_10lazy_image6engine2io5tests9icc_tests14avif_icc_testss_31test_avif_preserves_icc_profile
FNDA:1,_RNvNtNtNtNtNtCs7xzLeE8dEzx_10lazy_image6engine2io5tests9icc_tests14avif_icc_testss_42test_avif_encoding_with_icc_does_not_crash
FNDA:1,_RNvNtNtNtNtNtCs7xzLeE8dEzx_10lazy_image6engine2io5tests9icc_tests16extraction_testss_38test_extract_icc_from_png_with_profile
FNDA:1,_RNvNtNtNtNtNtCs7xzLeE8dEzx_10lazy_image6engine2io5tests9icc_tests16extraction_testss_39test_extract_icc_from_jpeg_with_profile
FNDA:1,_RNvNtNtNtNtNtCs7xzLeE8dEzx_10lazy_image6engine2io5tests9icc_tests16extraction_testss_39test_extract_icc_from_webp_with_profile
FNDA:1,_RNvNtNtNtNtNtCs7xzLeE8dEzx_10lazy_image6engine2io5tests9icc_tests16extraction_testss_39test_extract_icc_returns_none_for_empty
FNDA:1,_RNvNtNtNtNtNtCs7xzLeE8dEzx_10lazy_image6engine2io5tests9icc_tests16extraction_testss_40test_extract_icc_returns_none_for_no_icc
FNDA:1,_RNvNtNtNtNtNtCs7xzLeE8dEzx_10lazy_image6engine2io5tests9icc_tests16extraction_testss_43test_extract_icc_returns_none_for_non_image
FNF:51
FNH:50
DA:25,0
DA:26,0
DA:27,0
DA:28,0
DA:29,0
DA:30,0
DA:31,0
DA:34,0
DA:37,3
DA:38,3
DA:39,3
DA:40,0
DA:42,3
DA:45,1
DA:46,1
DA:47,1
DA:48,0
DA:50,1
DA:55,36
DA:56,36
DA:57,36
DA:58,4
DA:59,32
DA:61,32
DA:63,12
DA:64,20
DA:66,8
DA:67,12
DA:69,6
DA:70,6
DA:72,4
DA:74,2
DA:78,24
DA:79,16
DA:82,8
DA:84,36
DA:88,42
DA:89,42
DA:90,42
DA:91,16
DA:92,26
DA:93,26
DA:94,26
DA:95,26
DA:96,26
DA:97,26
DA:98,26
DA:99,26
DA:100,4
DA:101,22
DA:106,88
DA:107,88
DA:108,0
DA:109,88
DA:114,22
DA:115,22
DA:116,2
DA:117,20
DA:122,80
DA:123,80
DA:124,0
DA:125,80
DA:129,80
DA:130,80
DA:131,0
DA:132,80
DA:136,80
DA:137,80
DA:138,0
DA:139,80
DA:143,20
DA:144,42
DA:147,10
DA:148,10
DA:149,10
DA:150,10
DA:151,0
DA:152,10
DA:153,10
DA:154,10
DA:155,10
DA:156,2
DA:157,8
DA:158,8
DA:159,8
DA:160,8
DA:161,8
DA:162,0
DA:163,8
DA:164,8
DA:165,8
DA:166,8
DA:167,8
DA:168,8
DA:169,0
DA:170,0
DA:171,0
DA:172,0
DA:173,0
DA:174,0
DA:175,0
DA:176,0
DA:177,0
DA:178,0
DA:179,0
DA:181,0
DA:183,0
DA:184,10
DA:187,14
DA:190,14
DA:191,14
DA:192,14
DA:195,10
DA:198,10
DA:199,10
DA:200,10
DA:203,8
DA:207,8
DA:208,8
DA:209,8
DA:213,4
DA:214,4
DA:215,4
DA:216,4
DA:217,4
DA:218,0
DA:219,4
DA:224,4
DA:225,4
DA:226,4
DA:227,4
DA:228,4
DA:230,4
DA:232,4
DA:233,4
DA:234,4
DA:235,4
DA:236,4
DA:237,0
DA:238,4
DA:239,4
DA:240,4
DA:241,4
DA:242,4
DA:243,0
DA:244,4
DA:245,4
DA:246,4
DA:247,4
DA:248,4
DA:249,0
DA:250,4
DA:251,4
DA:252,4
DA:253,4
DA:254,4
DA:255,2
DA:256,2
DA:257,2
DA:258,2
DA:259,2
DA:260,2
DA:261,0
DA:262,2
DA:263,2
DA:264,2
DA:265,2
DA:267,4
DA:277,16
DA:278,110104
DA:279,110104
DA:280,110104
DA:281,16
DA:284,3
DA:285,3
DA:286,3
DA:287,3
DA:288,3
DA:289,3
DA:290,3
DA:291,3
DA:292,3
DA:293,3
DA:294,3
DA:295,3
DA:296,3
DA:297,3
DA:298,3
DA:299,3
DA:300,3
DA:301,3
DA:302,3
DA:303,3
DA:304,3
DA:305,3
DA:306,3
DA:307,3
DA:308,3
DA:311,1
DA:312,1
DA:313,1
DA:314,1
DA:315,1
DA:316,1
DA:317,1
DA:320,1
DA:321,1
DA:322,1
DA:323,1
DA:324,1
DA:325,1
DA:326,1
DA:327,1
DA:328,1
DA:334,1
DA:335,1
DA:336,1
DA:337,1
DA:340,1
DA:341,1
DA:342,1
DA:343,1
DA:344,1
DA:345,1
DA:346,1
DA:347,1
DA:348,1
DA:349,1
DA:350,1
DA:351,1
DA:352,1
DA:353,1
DA:354,1
DA:355,1
DA:356,1
DA:357,1
DA:358,1
DA:359,1
DA:360,1
DA:361,1
DA:362,1
DA:363,1
DA:364,1
DA:365,1
DA:366,1
DA:367,1
DA:368,1
DA:369,1
DA:370,1
DA:371,1
DA:372,1
DA:375,1
DA:376,1
DA:377,1
DA:378,1
DA:379,1
DA:380,1
DA:381,1
DA:382,1
DA:383,1
DA:384,1
DA:385,1
DA:386,1
DA:387,1
DA:388,1
DA:389,1
DA:392,1
DA:393,1
DA:394,1
DA:395,1
DA:396,1
DA:397,1
DA:398,1
DA:399,1
DA:400,1
DA:401,1
DA:404,1
DA:405,1
DA:406,1
DA:407,1
DA:408,1
DA:409,1
DA:412,1
DA:413,1
DA:414,1
DA:415,1
DA:416,1
DA:417,1
DA:420,1
DA:421,1
DA:422,1
DA:423,1
DA:424,1
DA:425,1
DA:428,1
DA:429,1
DA:430,1
DA:431,1
DA:432,1
DA:435,1
DA:436,1
DA:437,1
DA:438,1
DA:439,1
DA:440,1
DA:441,1
DA:444,13
DA:445,13
DA:446,13
DA:447,13
DA:448,13
DA:449,13
DA:450,13
DA:451,13
DA:452,13
DA:453,13
DA:454,13
DA:455,13
DA:456,13
DA:457,13
DA:458,13
DA:459,13
DA:460,13
DA:461,13
DA:462,13
DA:463,13
DA:464,13
DA:465,13
DA:466,13
DA:467,13
DA:468,13
DA:469,13
DA:470,13
DA:471,13
DA:472,13
DA:473,13
DA:474,13
DA:475,13
DA:478,3
DA:479,3
DA:480,3
DA:481,3
DA:484,3
DA:485,3
DA:486,3
DA:487,3
DA:490,2
DA:491,2
DA:492,2
DA:493,2
DA:499,1
DA:500,1
DA:501,1
DA:502,1
DA:503,1
DA:504,1
DA:505,1
DA:506,1
DA:507,1
DA:510,1
DA:511,1
DA:512,1
DA:513,1
DA:514,1
DA:515,1
DA:516,1
DA:517,1
DA:518,1
DA:519,1
DA:520,1
DA:521,1
DA:522,1
DA:523,1
DA:526,1
DA:527,1
DA:528,1
DA:529,1
DA:530,1
DA:531,1
DA:534,1
DA:535,1
DA:536,1
DA:537,1
DA:538,1
DA:541,1
DA:542,1
DA:543,1
DA:544,1
DA:547,1
DA:548,1
DA:549,1
DA:550,1
DA:557,1
DA:558,1
DA:559,1
DA:560,1
DA:563,1
DA:564,1
DA:565,1
DA:566,1
DA:567,1
DA:568,1
DA:571,1
DA:572,1
DA:573,1
DA:574,1
DA:575,1
DA:576,1
DA:577,1
DA:578,1
DA:579,1
DA:582,1
DA:583,1
DA:584,1
DA:587,1
DA:588,1
DA:589,1
DA:596,1
DA:597,1
DA:598,1
DA:599,1
DA:600,1
DA:601,1
DA:602,1
DA:603,1
DA:604,1
DA:605,1
DA:606,1
DA:607,1
DA:608,1
DA:609,1
DA:610,1
DA:611,1
DA:612,1
DA:613,1
DA:616,1
DA:617,1
DA:618,1
DA:619,1
DA:620,1
DA:621,1
DA:622,1
DA:623,1
DA:624,1
DA:625,0
DA:626,0
DA:627,0
DA:628,0
DA:629,0
DA:630,0
DA:631,0
DA:632,0
DA:633,0
DA:634,0
DA:635,0
DA:636,0
DA:637,1
DA:640,1
DA:641,1
DA:642,1
DA:643,1
DA:644,1
DA:645,1
DA:646,1
DA:647,1
DA:648,1
DA:649,1
DA:650,1
DA:653,1
DA:654,1
DA:655,1
DA:656,1
DA:657,1
DA:658,1
DA:659,1
DA:660,1
DA:661,1
DA:662,1
DA:663,1
DA:664,1
DA:665,1
DA:666,1
DA:667,1
DA:668,1
DA:669,0
DA:670,0
DA:671,0
DA:672,1
DA:675,1
DA:676,1
DA:677,1
DA:678,1
DA:679,1
DA:680,1
DA:681,1
DA:682,1
DA:683,1
DA:684,1
DA:685,1
DA:686,1
DA:687,0
DA:688,0
DA:689,0
DA:690,0
DA:691,0
DA:692,0
DA:693,0
DA:694,0
DA:695,1
DA:702,1
DA:703,1
DA:704,1
DA:705,1
DA:706,1
DA:707,1
DA:708,1
DA:709,1
DA:710,1
DA:713,1
DA:714,1
DA:715,1
DA:716,0
DA:720,1
DA:721,1
DA:722,1
DA:723,1
DA:724,0
DA:726,1
DA:727,1
DA:728,1
DA:729,0
DA:731,1
DA:734,1
DA:735,1
DA:736,1
DA:737,1
DA:738,1
DA:739,1
DA:740,1
DA:743,1
DA:744,1
DA:745,1
DA:746,1
DA:747,1
DA:748,1
DA:749,1
DA:752,1
DA:753,1
DA:754,1
DA:755,0
DA:757,1
BRF:0
BRH:0
LF:556
LH:495
end_of_record
SF:/Users/shutoide/Developer/lazy-image/src/engine/pipeline.rs
FN:50,_RNvMNtNtCs2c7XeETP86L_10lazy_image6engine8pipelineNtB2_11ResizeError21into_lazy_image_error
FN:316,_RNvNtNtCs2c7XeETP86L_10lazy_image6engine8pipeline11fast_resize
FN:91,_RNvNtNtCs2c7XeETP86L_10lazy_image6engine8pipeline12optimize_ops
FN:307,_RNvNtNtCs2c7XeETP86L_10lazy_image6engine8pipeline17fast_resize_owned
FN:30,_RNvNtNtCs2c7XeETP86L_10lazy_image6engine8pipeline17to_pipeline_error
FN:353,_RNvNtNtCs2c7XeETP86L_10lazy_image6engine8pipeline20fast_resize_internal
FN:56,_RNvNtNtCs2c7XeETP86L_10lazy_image6engine8pipeline22calc_resize_dimensions
FN:366,_RNvNtNtCs2c7XeETP86L_10lazy_image6engine8pipeline22fast_resize_owned_impl
FN:406,_RNvNtNtCs2c7XeETP86L_10lazy_image6engine8pipeline25fast_resize_internal_impl
FN:210,_RNvNtNtCs2c7XeETP86L_10lazy_image6engine8pipeline9apply_ops
FN:42,_RINvMNtNtCs2c7XeETP86L_10lazy_image6engine8pipelineNtB3_11ResizeError3newNtNtCsfmASsVe1tYz_5alloc6string6StringEB7_
FN:42,_RINvMNtNtCs2c7XeETP86L_10lazy_image6engine8pipelineNtB3_11ResizeError3newReEB7_
FN:403,_RNCNvNtNtCs2c7XeETP86L_10lazy_image6engine8pipeline22fast_resize_owned_impl0B7_
FN:476,_RNCNvNtNtCs2c7XeETP86L_10lazy_image6engine8pipeline25fast_resize_internal_impl0B7_
FN:493,_RNCNvNtNtCs2c7XeETP86L_10lazy_image6engine8pipeline25fast_resize_internal_impls0_0B7_
FN:487,_RNCNvNtNtCs2c7XeETP86L_10lazy_image6engine8pipeline25fast_resize_internal_impls_0B7_
FN:245,_RNCNvNtNtCs2c7XeETP86L_10lazy_image6engine8pipeline9apply_ops0B7_
FN:50,_RNvMNtNtCs7xzLeE8dEzx_10lazy_image6engine8pipelineNtB2_11ResizeError21into_lazy_image_error
FN:316,_RNvNtNtCs7xzLeE8dEzx_10lazy_image6engine8pipeline11fast_resize
FN:91,_RNvNtNtCs7xzLeE8dEzx_10lazy_image6engine8pipeline12optimize_ops
FN:307,_RNvNtNtCs7xzLeE8dEzx_10lazy_image6engine8pipeline17fast_resize_owned
FN:30,_RNvNtNtCs7xzLeE8dEzx_10lazy_image6engine8pipeline17to_pipeline_error
FN:353,_RNvNtNtCs7xzLeE8dEzx_10lazy_image6engine8pipeline20fast_resize_internal
FN:56,_RNvNtNtCs7xzLeE8dEzx_10lazy_image6engine8pipeline22calc_resize_dimensions
FN:366,_RNvNtNtCs7xzLeE8dEzx_10lazy_image6engine8pipeline22fast_resize_owned_impl
FN:406,_RNvNtNtCs7xzLeE8dEzx_10lazy_image6engine8pipeline25fast_resize_internal_impl
FN:210,_RNvNtNtCs7xzLeE8dEzx_10lazy_image6engine8pipeline9apply_ops
FN:42,_RINvMNtNtCs7xzLeE8dEzx_10lazy_image6engine8pipelineNtB3_11ResizeError3newNtNtCsfmASsVe1tYz_5alloc6string6StringEB7_
FN:42,_RINvMNtNtCs7xzLeE8dEzx_10lazy_image6engine8pipelineNtB3_11ResizeError3newReEB7_
FN:403,_RNCNvNtNtCs7xzLeE8dEzx_10lazy_image6engine8pipeline22fast_resize_owned_impl0B7_
FN:476,_RNCNvNtNtCs7xzLeE8dEzx_10lazy_image6engine8pipeline25fast_resize_internal_impl0B7_
FN:493,_RNCNvNtNtCs7xzLeE8dEzx_10lazy_image6engine8pipeline25fast_resize_internal_impls0_0B7_
FN:487,_RNCNvNtNtCs7xzLeE8dEzx_10lazy_image6engine8pipeline25fast_resize_internal_impls_0B7_
FN:245,_RNCNvNtNtCs7xzLeE8dEzx_10lazy_image6engine8pipeline9apply_ops0B7_
FN:765,_RNvNtNtNtNtCs7xzLeE8dEzx_10lazy_image6engine8pipeline5tests15apply_ops_testss_11test_flip_h
FN:773,_RNvNtNtNtNtCs7xzLeE8dEzx_10lazy_image6engine8pipeline5tests15apply_ops_testss_11test_flip_v
FN:798,_RNvNtNtNtNtCs7xzLeE8dEzx_10lazy_image6engine8pipeline5tests15apply_ops_testss_13test_contrast
FN:745,_RNvNtNtNtNtCs7xzLeE8dEzx_10lazy_image6engine8pipeline5tests15apply_ops_testss_13test_rotate_0
FN:713,_RNvNtNtNtNtCs7xzLeE8dEzx_10lazy_image6engine8pipeline5tests15apply_ops_testss_14test_rotate_90
FN:790,_RNvNtNtNtNtCs7xzLeE8dEzx_10lazy_image6engine8pipeline5tests15apply_ops_testss_15test_brightness
FN:660,_RNvNtNtNtNtCs7xzLeE8dEzx_10lazy_image6engine8pipeline5tests15apply_ops_testss_15test_crop_valid
FN:721,_RNvNtNtNtNtCs7xzLeE8dEzx_10lazy_image6engine8pipeline5tests15apply_ops_testss_15test_rotate_180
FN:729,_RNvNtNtNtNtCs7xzLeE8dEzx_10lazy_image6engine8pipeline5tests15apply_ops_testss_15test_rotate_270
FN:737,_RNvNtNtNtNtCs7xzLeE8dEzx_10lazy_image6engine8pipeline5tests15apply_ops_testss_17test_rotate_neg90
FN:687,_RNvNtNtNtNtCs7xzLeE8dEzx_10lazy_image6engine8pipeline5tests15apply_ops_testss_19test_crop_at_origin
FN:806,_RNvNtNtNtNtCs7xzLeE8dEzx_10lazy_image6engine8pipeline5tests15apply_ops_testss_20test_colorspace_srgb
FN:833,_RNvNtNtNtNtCs7xzLeE8dEzx_10lazy_image6engine8pipeline5tests15apply_ops_testss_21test_empty_operations
FN:627,_RNvNtNtNtNtCs7xzLeE8dEzx_10lazy_image6engine8pipeline5tests15apply_ops_testss_21test_resize_operation
FN:700,_RNvNtNtNtNtCs7xzLeE8dEzx_10lazy_image6engine8pipeline5tests15apply_ops_testss_22test_crop_entire_image
FN:638,_RNvNtNtNtNtCs7xzLeE8dEzx_10lazy_image6engine8pipeline5tests15apply_ops_testss_22test_resize_width_only
FN:816,_RNvNtNtNtNtCs7xzLeE8dEzx_10lazy_image6engine8pipeline5tests15apply_ops_testss_23test_chained_operations
FN:673,_RNvNtNtNtNtCs7xzLeE8dEzx_10lazy_image6engine8pipeline5tests15apply_ops_testss_23test_crop_out_of_bounds
FN:649,_RNvNtNtNtNtCs7xzLeE8dEzx_10lazy_image6engine8pipeline5tests15apply_ops_testss_23test_resize_height_only
FN:753,_RNvNtNtNtNtCs7xzLeE8dEzx_10lazy_image6engine8pipeline5tests15apply_ops_testss_25test_rotate_invalid_angle
FN:781,_RNvNtNtNtNtCs7xzLeE8dEzx_10lazy_image6engine8pipeline5tests15apply_ops_testss_31test_grayscale_reduces_channels
FN:893,_RNvNtNtNtNtCs7xzLeE8dEzx_10lazy_image6engine8pipeline5tests18optimize_ops_testss_21test_empty_operations
FN:883,_RNvNtNtNtNtCs7xzLeE8dEzx_10lazy_image6engine8pipeline5tests18optimize_ops_testss_21test_single_operation
FN:923,_RNvNtNtNtNtCs7xzLeE8dEzx_10lazy_image6engine8pipeline5tests18optimize_ops_testss_32test_resize_with_both_dimensions
FN:845,_RNvNtNtNtNtCs7xzLeE8dEzx_10lazy_image6engine8pipeline5tests18optimize_ops_testss_33test_consecutive_resizes_combined
FN:900,_RNvNtNtNtNtCs7xzLeE8dEzx_10lazy_image6engine8pipeline5tests18optimize_ops_testss_33test_multiple_consecutive_resizes
FN:866,_RNvNtNtNtNtCs7xzLeE8dEzx_10lazy_image6engine8pipeline5tests18optimize_ops_testss_41test_non_consecutive_resizes_not_combined
FN:990,_RNvNtNtNtNtCs7xzLeE8dEzx_10lazy_image6engine8pipeline5tests17fast_resize_testss_21test_fast_resize_rgba
FN:956,_RNvNtNtNtNtCs7xzLeE8dEzx_10lazy_image6engine8pipeline5tests17fast_resize_testss_24test_fast_resize_upscale
FN:947,_RNvNtNtNtNtCs7xzLeE8dEzx_10lazy_image6engine8pipeline5tests17fast_resize_testss_26test_fast_resize_downscale
FN:981,_RNvNtNtNtNtCs7xzLeE8dEzx_10lazy_image6engine8pipeline5tests17fast_resize_testss_26test_fast_resize_same_size
FN:974,_RNvNtNtNtNtCs7xzLeE8dEzx_10lazy_image6engine8pipeline5tests17fast_resize_testss_35test_fast_resize_invalid_dimensions
FN:965,_RNvNtNtNtNtCs7xzLeE8dEzx_10lazy_image6engine8pipeline5tests17fast_resize_testss_36test_fast_resize_aspect_ratio_change
FN:588,_RNvNtNtNtNtCs7xzLeE8dEzx_10lazy_image6engine8pipeline5tests17resize_calc_testss_17test_square_image
FN:563,_RNvNtNtNtNtCs7xzLeE8dEzx_10lazy_image6engine8pipeline5tests17resize_calc_testss_22test_rounding_behavior
FN:557,_RNvNtNtNtNtCs7xzLeE8dEzx_10lazy_image6engine8pipeline5tests17resize_calc_testss_26test_none_returns_original
FN:537,_RNvNtNtNtNtCs7xzLeE8dEzx_10lazy_image6engine8pipeline5tests17resize_calc_testss_30test_both_dimensions_specified
FN:580,_RNvNtNtNtNtCs7xzLeE8dEzx_10lazy_image6engine8pipeline5tests17resize_calc_testss_35test_aspect_ratio_preservation_tall
FN:572,_RNvNtNtNtNtCs7xzLeE8dEzx_10lazy_image6engine8pipeline5tests17resize_calc_testss_35test_aspect_ratio_preservation_wide
FN:615,_RNvNtNtNtNtCs7xzLeE8dEzx_10lazy_image6engine8pipeline5tests17resize_calc_testss_38test_both_dimensions_same_aspect_ratio
FN:543,_RNvNtNtNtNtCs7xzLeE8dEzx_10lazy_image6engine8pipeline5tests17resize_calc_testss_38test_width_only_maintains_aspect_ratio
FN:550,_RNvNtNtNtNtCs7xzLeE8dEzx_10lazy_image6engine8pipeline5tests17resize_calc_testss_39test_height_only_maintains_aspect_ratio
FN:605,_RNvNtNtNtNtCs7xzLeE8dEzx_10lazy_image6engine8pipeline5tests17resize_calc_testss_43test_both_dimensions_tall_image_fits_inside
FN:595,_RNvNtNtNtNtCs7xzLeE8dEzx_10lazy_image6engine8pipeline5tests17resize_calc_testss_43test_both_dimensions_wide_image_fits_inside
FN:521,_RNvNtNtNtCs7xzLeE8dEzx_10lazy_image6engine8pipeline5tests17create_test_image
FN:527,_RNvNtNtNtCs7xzLeE8dEzx_10lazy_image6engine8pipeline5tests22create_test_image_rgba
FN:522,_RNCNvNtNtNtCs7xzLeE8dEzx_10lazy_image6engine8pipeline5tests17create_test_image0B9_
FN:528,_RNCNvNtNtNtCs7xzLeE8dEzx_10lazy_image6engine8pipeline5tests22create_test_image_rgba0B9_
FNDA:4,_RNvMNtNtCs2c7XeETP86L_10lazy_image6engine8pipelineNtB2_11ResizeError21into_lazy_image_error
FNDA:2,_RNvNtNtCs2c7XeETP86L_10lazy_image6engine8pipeline11fast_resize
FNDA:16,_RNvNtNtCs2c7XeETP86L_10lazy_image6engine8pipeline12optimize_ops
FNDA:7,_RNvNtNtCs2c7XeETP86L_10lazy_image6engine8pipeline17fast_resize_owned
FNDA:7,_RNvNtNtCs2c7XeETP86L_10lazy_image6engine8pipeline17to_pipeline_error
FNDA:0,_RNvNtNtCs2c7XeETP86L_10lazy_image6engine8pipeline20fast_resize_internal
FNDA:6,_RNvNtNtCs2c7XeETP86L_10lazy_image6engine8pipeline22calc_resize_dimensions
FNDA:7,_RNvNtNtCs2c7XeETP86L_10lazy_image6engine8pipeline22fast_resize_owned_impl
FNDA:1,_RNvNtNtCs2c7XeETP86L_10lazy_image6engine8pipeline25fast_resize_internal_impl
FNDA:16,_RNvNtNtCs2c7XeETP86L_10lazy_image6engine8pipeline9apply_ops
FNDA:0,_RINvMNtNtCs2c7XeETP86L_10lazy_image6engine8pipelineNtB3_11ResizeError3newNtNtCsfmASsVe1tYz_5alloc6string6StringEB7_
FNDA:6,_RINvMNtNtCs2c7XeETP86L_10lazy_image6engine8pipelineNtB3_11ResizeError3newReEB7_
FNDA:0,_RNCNvNtNtCs2c7XeETP86L_10lazy_image6engine8pipeline22fast_resize_owned_impl0B7_
FNDA:0,_RNCNvNtNtCs2c7XeETP86L_10lazy_image6engine8pipeline25fast_resize_internal_impl0B7_
FNDA:0,_RNCNvNtNtCs2c7XeETP86L_10lazy_image6engine8pipeline25fast_resize_internal_impls0_0B7_
FNDA:0,_RNCNvNtNtCs2c7XeETP86L_10lazy_image6engine8pipeline25fast_resize_internal_impls_0B7_
FNDA:4,_RNCNvNtNtCs2c7XeETP86L_10lazy_image6engine8pipeline9apply_ops0B7_
FNDA:0,_RNvMNtNtCs7xzLeE8dEzx_10lazy_image6engine8pipelineNtB2_11ResizeError21into_lazy_image_error
FNDA:12,_RNvNtNtCs7xzLeE8dEzx_10lazy_image6engine8pipeline11fast_resize
FNDA:54,_RNvNtNtCs7xzLeE8dEzx_10lazy_image6engine8pipeline12optimize_ops
FNDA:10,_RNvNtNtCs7xzLeE8dEzx_10lazy_image6engine8pipeline17fast_resize_owned
FNDA:4,_RNvNtNtCs7xzLeE8dEzx_10lazy_image6engine8pipeline17to_pipeline_error
FNDA:10,_RNvNtNtCs7xzLeE8dEzx_10lazy_image6engine8pipeline20fast_resize_internal
FNDA:30,_RNvNtNtCs7xzLeE8dEzx_10lazy_image6engine8pipeline22calc_resize_dimensions
FNDA:10,_RNvNtNtCs7xzLeE8dEzx_10lazy_image6engine8pipeline22fast_resize_owned_impl
FNDA:18,_RNvNtNtCs7xzLeE8dEzx_10lazy_image6engine8pipeline25fast_resize_internal_impl
FNDA:42,_RNvNtNtCs7xzLeE8dEzx_10lazy_image6engine8pipeline9apply_ops
FNDA:0,_RINvMNtNtCs7xzLeE8dEzx_10lazy_image6engine8pipelineNtB3_11ResizeError3newNtNtCsfmASsVe1tYz_5alloc6string6StringEB7_
FNDA:2,_RINvMNtNtCs7xzLeE8dEzx_10lazy_image6engine8pipelineNtB3_11ResizeError3newReEB7_
FNDA:0,_RNCNvNtNtCs7xzLeE8dEzx_10lazy_image6engine8pipeline22fast_resize_owned_impl0B7_
FNDA:0,_RNCNvNtNtCs7xzLeE8dEzx_10lazy_image6engine8pipeline25fast_resize_internal_impl0B7_
FNDA:0,_RNCNvNtNtCs7xzLeE8dEzx_10lazy_image6engine8pipeline25fast_resize_internal_impls0_0B7_
FNDA:0,_RNCNvNtNtCs7xzLeE8dEzx_10lazy_image6engine8pipeline25fast_resize_internal_impls_0B7_
FNDA:0,_RNCNvNtNtCs7xzLeE8dEzx_10lazy_image6engine8pipeline9apply_ops0B7_
FNDA:1,_RNvNtNtNtNtCs7xzLeE8dEzx_10lazy_image6engine8pipeline5tests15apply_ops_testss_11test_flip_h
FNDA:1,_RNvNtNtNtNtCs7xzLeE8dEzx_10lazy_image6engine8pipeline5tests15apply_ops_testss_11test_flip_v
FNDA:1,_RNvNtNtNtNtCs7xzLeE8dEzx_10lazy_image6engine8pipeline5tests15apply_ops_testss_13test_contrast
FNDA:1,_RNvNtNtNtNtCs7xzLeE8dEzx_10lazy_image6engine8pipeline5tests15apply_ops_testss_13test_rotate_0
FNDA:1,_RNvNtNtNtNtCs7xzLeE8dEzx_10lazy_image6engine8pipeline5tests15apply_ops_testss_14test_rotate_90
FNDA:1,_RNvNtNtNtNtCs7xzLeE8dEzx_10lazy_image6engine8pipeline5tests15apply_ops_testss_15test_brightness
FNDA:1,_RNvNtNtNtNtCs7xzLeE8dEzx_10lazy_image6engine8pipeline5tests15apply_ops_testss_15test_crop_valid
FNDA:1,_RNvNtNtNtNtCs7xzLeE8dEzx_10lazy_image6engine8pipeline5tests15apply_ops_testss_15test_rotate_180
FNDA:1,_RNvNtNtNtNtCs7xzLeE8dEzx_10lazy_image6engine8pipeline5tests15apply_ops_testss_15test_rotate_270
FNDA:1,_RNvNtNtNtNtCs7xzLeE8dEzx_10lazy_image6engine8pipeline5tests15apply_ops_testss_17test_rotate_neg90
FNDA:1,_RNvNtNtNtNtCs7xzLeE8dEzx_10lazy_image6engine8pipeline5tests15apply_ops_testss_19test_crop_at_origin
FNDA:1,_RNvNtNtNtNtCs7xzLeE8dEzx_10lazy_image6engine8pipeline5tests15apply_ops_testss_20test_colorspace_srgb
FNDA:1,_RNvNtNtNtNtCs7xzLeE8dEzx_10lazy_image6engine8pipeline5tests15apply_ops_testss_21test_empty_operations
FNDA:1,_RNvNtNtNtNtCs7xzLeE8dEzx_10lazy_image6engine8pipeline5tests15apply_ops_testss_21test_resize_operation
FNDA:1,_RNvNtNtNtNtCs7xzLeE8dEzx_10lazy_image6engine8pipeline5tests15apply_ops_testss_22test_crop_entire_image
FNDA:1,_RNvNtNtNtNtCs7xzLeE8dEzx_10lazy_image6engine8pipeline5tests15apply_ops_testss_22test_resize_width_only
FNDA:1,_RNvNtNtNtNtCs7xzLeE8dEzx_10lazy_image6engine8pipeline5tests15apply_ops_testss_23test_chained_operations
FNDA:1,_RNvNtNtNtNtCs7xzLeE8dEzx_10lazy_image6engine8pipeline5tests15apply_ops_testss_23test_crop_out_of_bounds
FNDA:1,_RNvNtNtNtNtCs7xzLeE8dEzx_10lazy_image6engine8pipeline5tests15apply_ops_testss_23test_resize_height_only
FNDA:1,_RNvNtNtNtNtCs7xzLeE8dEzx_10lazy_image6engine8pipeline5tests15apply_ops_testss_25test_rotate_invalid_angle
FNDA:1,_RNvNtNtNtNtCs7xzLeE8dEzx_10lazy_image6engine8pipeline5tests15apply_ops_testss_31test_grayscale_reduces_channels
FNDA:1,_RNvNtNtNtNtCs7xzLeE8dEzx_10lazy_image6engine8pipeline5tests18optimize_ops_testss_21test_empty_operations
FNDA:1,_RNvNtNtNtNtCs7xzLeE8dEzx_10lazy_image6engine8pipeline5tests18optimize_ops_testss_21test_single_operation
FNDA:1,_RNvNtNtNtNtCs7xzLeE8dEzx_10lazy_image6engine8pipeline5tests18optimize_ops_testss_32test_resize_with_both_dimensions
FNDA:1,_RNvNtNtNtNtCs7xzLeE8dEzx_10lazy_image6engine8pipeline5tests18optimize_ops_testss_33test_consecutive_resizes_combined
FNDA:1,_RNvNtNtNtNtCs7xzLeE8dEzx_10lazy_image6engine8pipeline5tests18optimize_ops_testss_33test_multiple_consecutive_resizes
FNDA:1,_RNvNtNtNtNtCs7xzLeE8dEzx_10lazy_image6engine8pipeline5tests18optimize_ops_testss_41test_non_consecutive_resizes_not_combined
FNDA:1,_RNvNtNtNtNtCs7xzLeE8dEzx_10lazy_image6engine8pipeline5tests17fast_resize_testss_21test_fast_resize_rgba
FNDA:1,_RNvNtNtNtNtCs7xzLeE8dEzx_10lazy_image6engine8pipeline5tests17fast_resize_testss_24test_fast_resize_upscale
FNDA:1,_RNvNtNtNtNtCs7xzLeE8dEzx_10lazy_image6engine8pipeline5tests17fast_resize_testss_26test_fast_resize_downscale
FNDA:1,_RNvNtNtNtNtCs7xzLeE8dEzx_10lazy_image6engine8pipeline5tests17fast_resize_testss_26test_fast_resize_same_size
FNDA:1,_RNvNtNtNtNtCs7xzLeE8dEzx_10lazy_image6engine8pipeline5tests17fast_resize_testss_35test_fast_resize_invalid_dimensions
FNDA:1,_RNvNtNtNtNtCs7xzLeE8dEzx_10lazy_image6engine8pipeline5tests17fast_resize_testss_36test_fast_resize_aspect_ratio_change
FNDA:1,_RNvNtNtNtNtCs7xzLeE8dEzx_10lazy_image6engine8pipeline5tests17resize_calc_testss_17test_square_image
FNDA:1,_RNvNtNtNtNtCs7xzLeE8dEzx_10lazy_image6engine8pipeline5tests17resize_calc_testss_22test_rounding_behavior
FNDA:1,_RNvNtNtNtNtCs7xzLeE8dEzx_10lazy_image6engine8pipeline5tests17resize_calc_testss_26test_none_returns_original
FNDA:1,_RNvNtNtNtNtCs7xzLeE8dEzx_10lazy_image6engine8pipeline5tests17resize_calc_testss_30test_both_dimensions_specified
FNDA:1,_RNvNtNtNtNtCs7xzLeE8dEzx_10lazy_image6engine8pipeline5tests17resize_calc_testss_35test_aspect_ratio_preservation_tall
FNDA:1,_RNvNtNtNtNtCs7xzLeE8dEzx_10lazy_image6engine8pipeline5tests17resize_calc_testss_35test_aspect_ratio_preservation_wide
FNDA:1,_RNvNtNtNtNtCs7xzLeE8dEzx_10lazy_image6engine8pipeline5tests17resize_calc_testss_38test_both_dimensions_same_aspect_ratio
FNDA:1,_RNvNtNtNtNtCs7xzLeE8dEzx_10lazy_image6engine8pipeline5tests17resize_calc_testss_38test_width_only_maintains_aspect_ratio
FNDA:1,_RNvNtNtNtNtCs7xzLeE8dEzx_10lazy_image6engine8pipeline5tests17resize_calc_testss_39test_height_only_maintains_aspect_ratio
FNDA:1,_RNvNtNtNtNtCs7xzLeE8dEzx_10lazy_image6engine8pipeline5tests17resize_calc_testss_43test_both_dimensions_tall_image_fits_inside
FNDA:1,_RNvNtNtNtNtCs7xzLeE8dEzx_10lazy_image6engine8pipeline5tests17resize_calc_testss_43test_both_dimensions_wide_image_fits_inside
FNDA:26,_RNvNtNtNtCs7xzLeE8dEzx_10lazy_image6engine8pipeline5tests17create_test_image
FNDA:1,_RNvNtNtNtCs7xzLeE8dEzx_10lazy_image6engine8pipeline5tests22create_test_image_rgba
FNDA:267500,_RNCNvNtNtNtCs7xzLeE8dEzx_10lazy_image6engine8pipeline5tests17create_test_image0B9_
FNDA:10000,_RNCNvNtNtNtCs7xzLeE8dEzx_10lazy_image6engine8pipeline5tests22create_test_image_rgba0B9_
FNF:64
FNH:60
DA:30,11
DA:31,11
DA:32,11
DA:42,8
DA:43,8
DA:44,8
DA:45,8
DA:46,8
DA:47,8
DA:48,8
DA:50,4
DA:51,4
DA:52,4
DA:56,36
DA:57,36
DA:58,36
DA:59,36
DA:60,36
DA:61,36
DA:62,36
DA:63,13
DA:64,13
DA:65,13
DA:66,13
DA:67,13
DA:68,13
DA:70,3
DA:71,3
DA:74,10
DA:75,10
DA:78,14
DA:79,14
DA:80,14
DA:82,7
DA:83,7
DA:84,7
DA:86,2
DA:88,36
DA:91,70
DA:92,70
DA:93,60
DA:94,10
DA:95,10
DA:96,10
DA:97,10
DA:99,28
DA:100,18
DA:104,12
DA:105,12
DA:106,18
DA:108,12
DA:109,12
DA:110,12
DA:113,20
DA:115,8
DA:116,8
DA:117,12
DA:121,8
DA:122,2
DA:123,2
DA:124,6
DA:125,6
DA:126,6
DA:127,6
DA:128,0
DA:129,0
DA:130,0
DA:131,8
DA:133,4
DA:137,12
DA:139,6
DA:140,6
DA:141,6
DA:142,6
DA:143,6
DA:144,6
DA:145,6
DA:146,6
DA:149,12
DA:150,8
DA:154,0
DA:155,0
DA:156,0
DA:157,0
DA:158,0
DA:159,0
DA:160,0
DA:161,0
DA:162,0
DA:163,0
DA:164,0
DA:165,0
DA:166,0
DA:167,0
DA:168,0
DA:169,0
DA:170,0
DA:171,0
DA:172,0
DA:173,0
DA:174,0
DA:175,0
DA:176,0
DA:179,0
DA:180,0
DA:181,0
DA:182,8
DA:184,4
DA:186,12
DA:187,12
DA:190,10
DA:191,70
DA:210,58
DA:211,58
DA:212,58
DA:213,58
DA:214,58
DA:215,58
DA:216,58
DA:217,58
DA:218,58
DA:219,58
DA:220,58
DA:221,2
DA:222,56
DA:223,56
DA:224,56
DA:225,56
DA:226,56
DA:228,105
DA:229,60
DA:230,13
DA:231,13
DA:235,13
DA:236,13
DA:239,0
DA:244,13
DA:245,13
DA:249,12
DA:250,12
DA:251,12
DA:252,12
DA:253,12
DA:254,12
DA:255,12
DA:256,12
DA:257,12
DA:258,4
DA:259,4
DA:260,4
DA:261,8
DA:262,8
DA:265,20
DA:266,20
DA:267,5
DA:268,2
DA:269,2
DA:270,3
DA:271,1
DA:272,1
DA:273,3
DA:275,3
DA:276,3
DA:277,3
DA:282,2
DA:283,2
DA:284,5
DA:286,2
DA:288,2
DA:289,2
DA:290,2
DA:295,2
DA:296,2
DA:297,0
DA:302,45
DA:303,58
DA:307,17
DA:308,17
DA:309,17
DA:310,17
DA:311,17
DA:312,17
DA:313,17
DA:316,14
DA:317,14
DA:318,14
DA:319,14
DA:320,14
DA:321,14
DA:322,14
DA:323,14
DA:324,14
DA:325,4
DA:326,10
DA:330,10
DA:331,8
DA:332,8
DA:333,8
DA:334,8
DA:336,2
DA:337,2
DA:338,2
DA:339,2
DA:342,0
DA:343,0
DA:347,10
DA:348,10
DA:349,10
DA:350,14
DA:353,10
DA:354,10
DA:355,10
DA:356,10
DA:357,10
DA:358,10
DA:359,10
DA:360,10
DA:361,10
DA:362,10
DA:363,10
DA:364,10
DA:366,17
DA:367,17
DA:368,17
DA:369,17
DA:370,17
DA:371,17
DA:372,17
DA:373,17
DA:374,17
DA:375,8
DA:376,8
DA:377,8
DA:378,8
DA:379,8
DA:380,9
DA:384,9
DA:385,9
DA:386,9
DA:387,9
DA:389,0
DA:390,0
DA:391,0
DA:393,0
DA:394,0
DA:395,0
DA:396,0
DA:400,9
DA:401,9
DA:402,9
DA:403,9
DA:404,17
DA:406,19
DA:407,19
DA:408,19
DA:409,19
DA:410,19
DA:411,19
DA:412,19
DA:413,19
DA:440,19
DA:441,19
DA:442,0
DA:443,0
DA:444,0
DA:445,0
DA:446,0
DA:447,0
DA:449,0
DA:457,0
DA:458,0
DA:459,0
DA:460,0
DA:461,0
DA:463,0
DA:469,19
DA:470,19
DA:471,19
DA:472,19
DA:473,19
DA:474,2
DA:475,2
DA:476,2
DA:477,17
DA:480,19
DA:481,19
DA:482,19
DA:483,19
DA:484,19
DA:485,19
DA:486,19
DA:487,19
DA:490,19
DA:491,2
DA:492,2
DA:493,2
DA:494,17
DA:497,19
DA:498,19
DA:500,17
DA:501,17
DA:502,17
DA:505,2
DA:506,2
DA:507,2
DA:509,0
DA:511,19
DA:521,26
DA:522,267500
DA:523,267500
DA:524,267500
DA:525,26
DA:527,1
DA:528,10000
DA:529,10000
DA:530,10000
DA:531,1
DA:537,1
DA:538,1
DA:539,1
DA:540,1
DA:543,1
DA:544,1
DA:545,1
DA:546,1
DA:547,1
DA:550,1
DA:551,1
DA:552,1
DA:553,1
DA:554,1
DA:557,1
DA:558,1
DA:559,1
DA:560,1
DA:563,1
DA:564,1
DA:565,1
DA:566,1
DA:568,1
DA:569,1
DA:572,1
DA:573,1
DA:574,1
DA:575,1
DA:576,1
DA:577,1
DA:580,1
DA:581,1
DA:582,1
DA:583,1
DA:584,1
DA:585,1
DA:588,1
DA:589,1
DA:590,1
DA:591,1
DA:592,1
DA:595,1
DA:596,1
DA:597,1
DA:598,1
DA:599,1
DA:600,1
DA:601,1
DA:602,1
DA:605,1
DA:606,1
DA:607,1
DA:608,1
DA:609,1
DA:610,1
DA:611,1
DA:612,1
DA:615,1
DA:616,1
DA:617,1
DA:618,1
DA:619,1
DA:620,1
DA:627,1
DA:628,1
DA:629,1
DA:630,1
DA:631,1
DA:632,1
DA:633,1
DA:634,1
DA:635,1
DA:638,1
DA:639,1
DA:640,1
DA:641,1
DA:642,1
DA:643,1
DA:644,1
DA:645,1
DA:646,1
DA:649,1
DA:650,1
DA:651,1
DA:652,1
DA:653,1
DA:654,1
DA:655,1
DA:656,1
DA:657,1
DA:660,1
DA:661,1
DA:662,1
DA:663,1
DA:664,1
DA:665,1
DA:666,1
DA:667,1
DA:668,1
DA:669,1
DA:670,1
DA:673,1
DA:674,1
DA:675,1
DA:676,1
DA:677,1
DA:678,1
DA:679,1
DA:680,1
DA:681,1
DA:682,1
DA:683,1
DA:684,1
DA:687,1
DA:688,1
DA:689,1
DA:690,1
DA:691,1
DA:692,1
DA:693,1
DA:694,1
DA:695,1
DA:696,1
DA:697,1
DA:700,1
DA:701,1
DA:702,1
DA:703,1
DA:704,1
DA:705,1
DA:706,1
DA:707,1
DA:708,1
DA:709,1
DA:710,1
DA:713,1
DA:714,1
DA:715,1
DA:716,1
DA:717,1
DA:718,1
DA:721,1
DA:722,1
DA:723,1
DA:724,1
DA:725,1
DA:726,1
DA:729,1
DA:730,1
DA:731,1
DA:732,1
DA:733,1
DA:734,1
DA:737,1
DA:738,1
DA:739,1
DA:740,1
DA:741,1
DA:742,1
DA:745,1
DA:746,1
DA:747,1
DA:748,1
DA:749,1
DA:750,1
DA:753,1
DA:754,1
DA:755,1
DA:756,1
DA:757,1
DA:758,1
DA:759,1
DA:760,1
DA:761,1
DA:762,1
DA:765,1
DA:766,1
DA:767,1
DA:768,1
DA:769,1
DA:770,1
DA:773,1
DA:774,1
DA:775,1
DA:776,1
DA:777,1
DA:778,1
DA:781,1
DA:782,1
DA:783,1
DA:784,1
DA:785,1
DA:786,1
DA:787,1
DA:790,1
DA:791,1
DA:792,1
DA:793,1
DA:794,1
DA:795,1
DA:798,1
DA:799,1
DA:800,1
DA:801,1
DA:802,1
DA:803,1
DA:806,1
DA:807,1
DA:808,1
DA:809,1
DA:810,1
DA:811,1
DA:812,1
DA:813,1
DA:816,1
DA:817,1
DA:818,1
DA:819,1
DA:820,1
DA:821,1
DA:822,1
DA:823,1
DA:824,1
DA:825,1
DA:826,1
DA:827,1
DA:828,1
DA:829,1
DA:830,1
DA:833,1
DA:834,1
DA:835,1
DA:836,1
DA:837,1
DA:838,1
DA:845,1
DA:846,1
DA:847,1
DA:848,1
DA:849,1
DA:850,1
DA:851,1
DA:852,1
DA:853,1
DA:854,1
DA:855,1
DA:856,1
DA:857,1
DA:858,1
DA:859,1
DA:861,0
DA:863,1
DA:866,1
DA:867,1
DA:868,1
DA:869,1
DA:870,1
DA:871,1
DA:872,1
DA:873,1
DA:874,1
DA:875,1
DA:876,1
DA:877,1
DA:878,1
DA:879,1
DA:880,1
DA:883,1
DA:884,1
DA:885,1
DA:886,1
DA:887,1
DA:888,1
DA:889,1
DA:890,1
DA:893,1
DA:894,1
DA:895,1
DA:896,1
DA:897,1
DA:900,1
DA:901,1
DA:902,1
DA:903,1
DA:904,1
DA:905,1
DA:906,1
DA:907,1
DA:908,1
DA:909,1
DA:910,1
DA:911,1
DA:912,1
DA:913,1
DA:914,1
DA:915,1
DA:916,1
DA:917,1
DA:918,1
DA:919,0
DA:920,1
DA:923,1
DA:924,1
DA:925,1
DA:926,1
DA:927,1
DA:928,1
DA:929,1
DA:930,1
DA:931,1
DA:932,1
DA:933,1
DA:934,1
DA:935,1
DA:936,1
DA:937,1
DA:938,1
DA:939,0
DA:940,1
DA:947,1
DA:948,1
DA:949,1
DA:950,1
DA:951,1
DA:952,1
DA:953,1
DA:956,1
DA:957,1
DA:958,1
DA:959,1
DA:960,1
DA:961,1
DA:962,1
DA:965,1
DA:966,1
DA:967,1
DA:968,1
DA:969,1
DA:970,1
DA:971,1
DA:974,1
DA:975,1
DA:976,1
DA:977,1
DA:978,1
DA:981,1
DA:982,1
DA:983,1
DA:984,1
DA:985,1
DA:986,1
DA:987,1
DA:990,1
DA:991,1
DA:992,1
DA:993,1
DA:994,1
DA:995,1
DA:996,1
BRF:0
BRH:0
LF:685
LH:622
end_of_record
SF:/Users/shutoide/Developer/lazy-image/src/engine/tasks.rs
FN:137,_RNCNvMNtNtCs2c7XeETP86L_10lazy_image6engine5tasksNtB4_10EncodeTask18process_and_encode0B8_
FN:101,_RNCNvMNtNtCs2c7XeETP86L_10lazy_image6engine5tasksNtB4_10EncodeTask6decode0B8_
FN:116,_RNvMNtNtCs2c7XeETP86L_10lazy_image6engine5tasksNtB2_10EncodeTask18process_and_encode
FN:70,_RNvMNtNtCs2c7XeETP86L_10lazy_image6engine5tasksNtB2_10EncodeTask6decode
FN:37,_RNvNtNtCs2c7XeETP86L_10lazy_image6engine5tasks15to_engine_error
FN:70,_RNvMNtNtCs7xzLeE8dEzx_10lazy_image6engine5tasksNtB2_10EncodeTask6decode
FN:37,_RNvNtNtCs7xzLeE8dEzx_10lazy_image6engine5tasks15to_engine_error
FN:101,_RNCNvMNtNtCs7xzLeE8dEzx_10lazy_image6engine5tasksNtB4_10EncodeTask6decode0B8_
FN:137,_RNCNvMNtNtCs7xzLeE8dEzx_10lazy_image6engine5tasksNtB4_10EncodeTask18process_and_encode0B8_
FN:116,_RNvMNtNtCs7xzLeE8dEzx_10lazy_image6engine5tasksNtB2_10EncodeTask18process_and_encode
FNDA:0,_RNCNvMNtNtCs2c7XeETP86L_10lazy_image6engine5tasksNtB4_10EncodeTask18process_and_encode0B8_
FNDA:0,_RNCNvMNtNtCs2c7XeETP86L_10lazy_image6engine5tasksNtB4_10EncodeTask6decode0B8_
FNDA:0,_RNvMNtNtCs2c7XeETP86L_10lazy_image6engine5tasksNtB2_10EncodeTask18process_and_encode
FNDA:0,_RNvMNtNtCs2c7XeETP86L_10lazy_image6engine5tasksNtB2_10EncodeTask6decode
FNDA:0,_RNvNtNtCs2c7XeETP86L_10lazy_image6engine5tasks15to_engine_error
FNDA:3,_RNvMNtNtCs7xzLeE8dEzx_10lazy_image6engine5tasksNtB2_10EncodeTask6decode
FNDA:1,_RNvNtNtCs7xzLeE8dEzx_10lazy_image6engine5tasks15to_engine_error
FNDA:0,_RNCNvMNtNtCs7xzLeE8dEzx_10lazy_image6engine5tasksNtB4_10EncodeTask6decode0B8_
FNDA:0,_RNCNvMNtNtCs7xzLeE8dEzx_10lazy_image6engine5tasksNtB4_10EncodeTask18process_and_encode0B8_
FNDA:0,_RNvMNtNtCs7xzLeE8dEzx_10lazy_image6engine5tasksNtB2_10EncodeTask18process_and_encode
FNF:5
FNH:2
DA:37,1
DA:38,1
DA:39,1
DA:70,3
DA:73,3
DA:74,1
DA:75,2
DA:78,2
DA:79,1
DA:80,1
DA:81,1
DA:85,0
DA:86,0
DA:87,0
DA:91,1
DA:96,1
DA:98,0
DA:101,1
DA:102,0
DA:103,1
DA:107,1
DA:108,1
DA:110,1
DA:111,3
DA:116,0
DA:117,0
DA:118,0
DA:119,0
DA:120,0
DA:121,0
DA:122,0
DA:123,0
DA:124,0
DA:125,0
DA:128,0
DA:129,0
DA:130,0
DA:131,0
DA:132,0
DA:135,0
DA:136,0
DA:137,0
DA:139,0
DA:141,0
DA:142,0
DA:143,0
DA:144,0
DA:145,0
DA:146,0
DA:148,0
DA:149,0
DA:150,0
DA:151,0
DA:152,0
DA:153,0
DA:154,0
DA:156,0
DA:157,0
BRF:0
BRH:0
LF:61
LH:19
end_of_record
SF:/Users/shutoide/Developer/lazy-image/src/error.rs
FN:249,_RNvMNtCs2c7XeETP86L_10lazy_image5errorNtB2_14LazyImageError14is_recoverable
FN:158,_RNvMNtCs2c7XeETP86L_10lazy_image5errorNtB2_14LazyImageError15corrupted_image
FN:232,_RNvMNtCs2c7XeETP86L_10lazy_image5errorNtB2_14LazyImageError15source_consumed
FN:170,_RNvMNtCs2c7XeETP86L_10lazy_image5errorNtB2_14LazyImageError19invalid_crop_bounds
FN:188,_RNvMNtCs2c7XeETP86L_10lazy_image5errorNtB2_14LazyImageError22invalid_rotation_angle
FN:162,_RNvMNtCs2c7XeETP86L_10lazy_image5errorNtB2_14LazyImageError23dimension_exceeds_limit
FN:192,_RNvMNtCs2c7XeETP86L_10lazy_image5errorNtB2_14LazyImageError25invalid_resize_dimensions
FN:166,_RNvMNtCs2c7XeETP86L_10lazy_image5errorNtB2_14LazyImageError25pixel_count_exceeds_limit
FN:132,_RINvMNtCs2c7XeETP86L_10lazy_image5errorNtB3_14LazyImageError11mmap_failedpEB5_
FN:119,_RINvMNtCs2c7XeETP86L_10lazy_image5errorNtB3_14LazyImageError14file_not_foundpEB5_
FN:226,_RINvMNtCs2c7XeETP86L_10lazy_image5errorNtB3_14LazyImageError14invalid_presetpEB5_
FN:125,_RINvMNtCs2c7XeETP86L_10lazy_image5errorNtB3_14LazyImageError16file_read_failedpEB5_
FN:139,_RINvMNtCs2c7XeETP86L_10lazy_image5errorNtB3_14LazyImageError17file_write_failedpEB5_
FN:146,_RINvMNtCs2c7XeETP86L_10lazy_image5errorNtB3_14LazyImageError18unsupported_formatpEB5_
FN:210,_RINvMNtCs2c7XeETP86L_10lazy_image5errorNtB3_14LazyImageError23unsupported_color_spacepEB5_
FN:242,_RINvMNtCs2c7XeETP86L_10lazy_image5errorNtB3_14LazyImageError7genericpEB5_
FN:152,_RINvMNtCs2c7XeETP86L_10lazy_image5errorNtB3_14LazyImageError13decode_failedNtNtCsfmASsVe1tYz_5alloc6string6StringEB5_
FN:216,_RINvMNtCs2c7XeETP86L_10lazy_image5errorNtB3_14LazyImageError13encode_failedReB1b_EB5_
FN:216,_RINvMNtCs2c7XeETP86L_10lazy_image5errorNtB3_14LazyImageError13encode_failedReNtNtCsfmASsVe1tYz_5alloc6string6StringEB5_
FN:196,_RINvMNtCs2c7XeETP86L_10lazy_image5errorNtB3_14LazyImageError13resize_failedNtNtCsfmASsVe1tYz_5alloc6string6StringEB5_
FN:236,_RINvMNtCs2c7XeETP86L_10lazy_image5errorNtB3_14LazyImageError14internal_panicReEB5_
FN:249,_RNvMNtCs7xzLeE8dEzx_10lazy_image5errorNtB2_14LazyImageError14is_recoverable
FN:158,_RNvMNtCs7xzLeE8dEzx_10lazy_image5errorNtB2_14LazyImageError15corrupted_image
FN:232,_RNvMNtCs7xzLeE8dEzx_10lazy_image5errorNtB2_14LazyImageError15source_consumed
FN:170,_RNvMNtCs7xzLeE8dEzx_10lazy_image5errorNtB2_14LazyImageError19invalid_crop_bounds
FN:188,_RNvMNtCs7xzLeE8dEzx_10lazy_image5errorNtB2_14LazyImageError22invalid_rotation_angle
FN:162,_RNvMNtCs7xzLeE8dEzx_10lazy_image5errorNtB2_14LazyImageError23dimension_exceeds_limit
FN:192,_RNvMNtCs7xzLeE8dEzx_10lazy_image5errorNtB2_14LazyImageError25invalid_resize_dimensions
FN:166,_RNvMNtCs7xzLeE8dEzx_10lazy_image5errorNtB2_14LazyImageError25pixel_count_exceeds_limit
FN:152,_RINvMNtCs7xzLeE8dEzx_10lazy_image5errorNtB3_14LazyImageError13decode_failedNtNtCsfmASsVe1tYz_5alloc6string6StringEB5_
FN:152,_RINvMNtCs7xzLeE8dEzx_10lazy_image5errorNtB3_14LazyImageError13decode_failedReEB5_
FN:216,_RINvMNtCs7xzLeE8dEzx_10lazy_image5errorNtB3_14LazyImageError13encode_failedReB1b_EB5_
FN:216,_RINvMNtCs7xzLeE8dEzx_10lazy_image5errorNtB3_14LazyImageError13encode_failedReNtNtCsfmASsVe1tYz_5alloc6string6StringEB5_
FN:196,_RINvMNtCs7xzLeE8dEzx_10lazy_image5errorNtB3_14LazyImageError13resize_failedNtNtCsfmASsVe1tYz_5alloc6string6StringEB5_
FN:196,_RINvMNtCs7xzLeE8dEzx_10lazy_image5errorNtB3_14LazyImageError13resize_failedReEB5_
FN:119,_RINvMNtCs7xzLeE8dEzx_10lazy_image5errorNtB3_14LazyImageError14file_not_foundReEB5_
FN:236,_RINvMNtCs7xzLeE8dEzx_10lazy_image5errorNtB3_14LazyImageError14internal_panicReEB5_
FN:226,_RINvMNtCs7xzLeE8dEzx_10lazy_image5errorNtB3_14LazyImageError14invalid_presetReEB5_
FN:125,_RINvMNtCs7xzLeE8dEzx_10lazy_image5errorNtB3_14LazyImageError16file_read_failedReEB5_
FN:139,_RINvMNtCs7xzLeE8dEzx_10lazy_image5errorNtB3_14LazyImageError17file_write_failedReEB5_
FN:146,_RINvMNtCs7xzLeE8dEzx_10lazy_image5errorNtB3_14LazyImageError18unsupported_formatReEB5_
FN:210,_RINvMNtCs7xzLeE8dEzx_10lazy_image5errorNtB3_14LazyImageError23unsupported_color_spaceReEB5_
FN:242,_RINvMNtCs7xzLeE8dEzx_10lazy_image5errorNtB3_14LazyImageError7genericReEB5_
FN:132,_RINvMNtCs7xzLeE8dEzx_10lazy_image5errorNtB3_14LazyImageError11mmap_failedpEB5_
FN:297,_RNvNtNtCs7xzLeE8dEzx_10lazy_image5error5testss_18test_error_display
FN:303,_RNvNtNtCs7xzLeE8dEzx_10lazy_image5error5testss_22test_error_recoverable
FN:311,_RNvNtNtCs7xzLeE8dEzx_10lazy_image5error5testss_27test_all_error_constructors
FNDA:0,_RNvMNtCs2c7XeETP86L_10lazy_image5errorNtB2_14LazyImageError14is_recoverable
FNDA:0,_RNvMNtCs2c7XeETP86L_10lazy_image5errorNtB2_14LazyImageError15corrupted_image
FNDA:0,_RNvMNtCs2c7XeETP86L_10lazy_image5errorNtB2_14LazyImageError15source_consumed
FNDA:2,_RNvMNtCs2c7XeETP86L_10lazy_image5errorNtB2_14LazyImageError19invalid_crop_bounds
FNDA:1,_RNvMNtCs2c7XeETP86L_10lazy_image5errorNtB2_14LazyImageError22invalid_rotation_angle
FNDA:2,_RNvMNtCs2c7XeETP86L_10lazy_image5errorNtB2_14LazyImageError23dimension_exceeds_limit
FNDA:0,_RNvMNtCs2c7XeETP86L_10lazy_image5errorNtB2_14LazyImageError25invalid_resize_dimensions
FNDA:2,_RNvMNtCs2c7XeETP86L_10lazy_image5errorNtB2_14LazyImageError25pixel_count_exceeds_limit
FNDA:0,_RINvMNtCs2c7XeETP86L_10lazy_image5errorNtB3_14LazyImageError11mmap_failedpEB5_
FNDA:0,_RINvMNtCs2c7XeETP86L_10lazy_image5errorNtB3_14LazyImageError14file_not_foundpEB5_
FNDA:0,_RINvMNtCs2c7XeETP86L_10lazy_image5errorNtB3_14LazyImageError14invalid_presetpEB5_
FNDA:0,_RINvMNtCs2c7XeETP86L_10lazy_image5errorNtB3_14LazyImageError16file_read_failedpEB5_
FNDA:0,_RINvMNtCs2c7XeETP86L_10lazy_image5errorNtB3_14LazyImageError17file_write_failedpEB5_
FNDA:0,_RINvMNtCs2c7XeETP86L_10lazy_image5errorNtB3_14LazyImageError18unsupported_formatpEB5_
FNDA:0,_RINvMNtCs2c7XeETP86L_10lazy_image5errorNtB3_14LazyImageError23unsupported_color_spacepEB5_
FNDA:0,_RINvMNtCs2c7XeETP86L_10lazy_image5errorNtB3_14LazyImageError7genericpEB5_
FNDA:2,_RINvMNtCs2c7XeETP86L_10lazy_image5errorNtB3_14LazyImageError13decode_failedNtNtCsfmASsVe1tYz_5alloc6string6StringEB5_
FNDA:0,_RINvMNtCs2c7XeETP86L_10lazy_image5errorNtB3_14LazyImageError13encode_failedReB1b_EB5_
FNDA:1,_RINvMNtCs2c7XeETP86L_10lazy_image5errorNtB3_14LazyImageError13encode_failedReNtNtCsfmASsVe1tYz_5alloc6string6StringEB5_
FNDA:4,_RINvMNtCs2c7XeETP86L_10lazy_image5errorNtB3_14LazyImageError13resize_failedNtNtCsfmASsVe1tYz_5alloc6string6StringEB5_
FNDA:0,_RINvMNtCs2c7XeETP86L_10lazy_image5errorNtB3_14LazyImageError14internal_panicReEB5_
FNDA:4,_RNvMNtCs7xzLeE8dEzx_10lazy_image5errorNtB2_14LazyImageError14is_recoverable
FNDA:1,_RNvMNtCs7xzLeE8dEzx_10lazy_image5errorNtB2_14LazyImageError15corrupted_image
FNDA:2,_RNvMNtCs7xzLeE8dEzx_10lazy_image5errorNtB2_14LazyImageError15source_consumed
FNDA:4,_RNvMNtCs7xzLeE8dEzx_10lazy_image5errorNtB2_14LazyImageError19invalid_crop_bounds
FNDA:3,_RNvMNtCs7xzLeE8dEzx_10lazy_image5errorNtB2_14LazyImageError22invalid_rotation_angle
FNDA:3,_RNvMNtCs7xzLeE8dEzx_10lazy_image5errorNtB2_14LazyImageError23dimension_exceeds_limit
FNDA:1,_RNvMNtCs7xzLeE8dEzx_10lazy_image5errorNtB2_14LazyImageError25invalid_resize_dimensions
FNDA:4,_RNvMNtCs7xzLeE8dEzx_10lazy_image5errorNtB2_14LazyImageError25pixel_count_exceeds_limit
FNDA:1,_RINvMNtCs7xzLeE8dEzx_10lazy_image5errorNtB3_14LazyImageError13decode_failedNtNtCsfmASsVe1tYz_5alloc6string6StringEB5_
FNDA:2,_RINvMNtCs7xzLeE8dEzx_10lazy_image5errorNtB3_14LazyImageError13decode_failedReEB5_
FNDA:1,_RINvMNtCs7xzLeE8dEzx_10lazy_image5errorNtB3_14LazyImageError13encode_failedReB1b_EB5_
FNDA:0,_RINvMNtCs7xzLeE8dEzx_10lazy_image5errorNtB3_14LazyImageError13encode_failedReNtNtCsfmASsVe1tYz_5alloc6string6StringEB5_
FNDA:0,_RINvMNtCs7xzLeE8dEzx_10lazy_image5errorNtB3_14LazyImageError13resize_failedNtNtCsfmASsVe1tYz_5alloc6string6StringEB5_
FNDA:1,_RINvMNtCs7xzLeE8dEzx_10lazy_image5errorNtB3_14LazyImageError13resize_failedReEB5_
FNDA:3,_RINvMNtCs7xzLeE8dEzx_10lazy_image5errorNtB3_14LazyImageError14file_not_foundReEB5_
FNDA:2,_RINvMNtCs7xzLeE8dEzx_10lazy_image5errorNtB3_14LazyImageError14internal_panicReEB5_
FNDA:1,_RINvMNtCs7xzLeE8dEzx_10lazy_image5errorNtB3_14LazyImageError14invalid_presetReEB5_
FNDA:1,_RINvMNtCs7xzLeE8dEzx_10lazy_image5errorNtB3_14LazyImageError16file_read_failedReEB5_
FNDA:1,_RINvMNtCs7xzLeE8dEzx_10lazy_image5errorNtB3_14LazyImageError17file_write_failedReEB5_
FNDA:1,_RINvMNtCs7xzLeE8dEzx_10lazy_image5errorNtB3_14LazyImageError18unsupported_formatReEB5_
FNDA:1,_RINvMNtCs7xzLeE8dEzx_10lazy_image5errorNtB3_14LazyImageError23unsupported_color_spaceReEB5_
FNDA:1,_RINvMNtCs7xzLeE8dEzx_10lazy_image5errorNtB3_14LazyImageError7genericReEB5_
FNDA:0,_RINvMNtCs7xzLeE8dEzx_10lazy_image5errorNtB3_14LazyImageError11mmap_failedpEB5_
FNDA:1,_RNvNtNtCs7xzLeE8dEzx_10lazy_image5error5testss_18test_error_display
FNDA:1,_RNvNtNtCs7xzLeE8dEzx_10lazy_image5error5testss_22test_error_recoverable
FNDA:1,_RNvNtNtCs7xzLeE8dEzx_10lazy_image5error5testss_27test_all_error_constructors
FNF:23
FNH:22
DA:119,3
DA:120,3
DA:121,3
DA:122,3
DA:123,3
DA:125,1
DA:126,1
DA:127,1
DA:128,1
DA:129,1
DA:130,1
DA:132,0
DA:133,0
DA:134,0
DA:135,0
DA:136,0
DA:137,0
DA:139,1
DA:140,1
DA:141,1
DA:142,1
DA:143,1
DA:144,1
DA:146,1
DA:147,1
DA:148,1
DA:149,1
DA:150,1
DA:152,5
DA:153,5
DA:154,5
DA:155,5
DA:156,5
DA:158,1
DA:159,1
DA:160,1
DA:162,5
DA:163,5
DA:164,5
DA:166,6
DA:167,6
DA:168,6
DA:170,6
DA:171,6
DA:172,6
DA:173,6
DA:174,6
DA:175,6
DA:176,6
DA:177,6
DA:178,6
DA:179,6
DA:180,6
DA:181,6
DA:182,6
DA:183,6
DA:184,6
DA:185,6
DA:186,6
DA:188,4
DA:189,4
DA:190,4
DA:192,1
DA:193,1
DA:194,1
DA:196,5
DA:197,5
DA:198,5
DA:199,5
DA:200,5
DA:201,5
DA:202,5
DA:203,5
DA:204,5
DA:205,5
DA:206,5
DA:207,5
DA:208,5
DA:210,1
DA:211,1
DA:212,1
DA:213,1
DA:214,1
DA:216,2
DA:217,2
DA:218,2
DA:219,2
DA:220,2
DA:221,2
DA:222,2
DA:223,2
DA:224,2
DA:226,1
DA:227,1
DA:228,1
DA:229,1
DA:230,1
DA:232,2
DA:233,2
DA:234,2
DA:236,2
DA:237,2
DA:238,2
DA:239,2
DA:240,2
DA:242,1
DA:243,1
DA:244,1
DA:245,1
DA:246,1
DA:249,4
DA:250,2
DA:251,4
DA:263,4
DA:297,1
DA:298,1
DA:299,1
DA:300,1
DA:303,1
DA:304,1
DA:305,1
DA:306,1
DA:307,1
DA:308,1
DA:311,1
DA:312,1
DA:313,1
DA:314,1
DA:315,1
DA:316,1
DA:317,1
DA:318,1
DA:319,1
DA:320,1
DA:321,1
DA:322,1
DA:323,1
DA:324,1
DA:325,1
DA:326,1
DA:327,1
DA:328,1
DA:329,1
DA:330,1
DA:331,1
DA:332,1
DA:333,1
DA:334,1
DA:335,1
DA:336,1
BRF:0
BRH:0
LF:150
LH:144
end_of_record
SF:/Users/shutoide/Developer/lazy-image/src/ops.rs
FN:73,_RNvMNtCs2c7XeETP86L_10lazy_image3opsNtB2_12OutputFormat8from_str
FN:120,_RNvMs_NtCs2c7XeETP86L_10lazy_image3opsNtB4_12PresetConfig3get
FN:111,_RNvMs_NtCs2c7XeETP86L_10lazy_image3opsNtB4_12PresetConfig3new
FN:144,_RNvMs_NtCs2c7XeETP86L_10lazy_image3opsNtB4_12PresetConfig4hero
FN:138,_RNvMs_NtCs2c7XeETP86L_10lazy_image3opsNtB4_12PresetConfig6avatar
FN:150,_RNvMs_NtCs2c7XeETP86L_10lazy_image3opsNtB4_12PresetConfig6social
FN:132,_RNvMs_NtCs2c7XeETP86L_10lazy_image3opsNtB4_12PresetConfig9thumbnail
FN:73,_RNvMNtCs7xzLeE8dEzx_10lazy_image3opsNtB2_12OutputFormat8from_str
FN:120,_RNvMs_NtCs7xzLeE8dEzx_10lazy_image3opsNtB4_12PresetConfig3get
FN:111,_RNvMs_NtCs7xzLeE8dEzx_10lazy_image3opsNtB4_12PresetConfig3new
FN:144,_RNvMs_NtCs7xzLeE8dEzx_10lazy_image3opsNtB4_12PresetConfig4hero
FN:138,_RNvMs_NtCs7xzLeE8dEzx_10lazy_image3opsNtB4_12PresetConfig6avatar
FN:150,_RNvMs_NtCs7xzLeE8dEzx_10lazy_image3opsNtB4_12PresetConfig6social
FN:132,_RNvMs_NtCs7xzLeE8dEzx_10lazy_image3opsNtB4_12PresetConfig9thumbnail
FN:375,_RNvNtNtNtCs7xzLeE8dEzx_10lazy_image3ops5tests19preset_config_testss_15test_preset_new
FN:310,_RNvNtNtNtCs7xzLeE8dEzx_10lazy_image3ops5tests19preset_config_testss_16test_hero_preset
FN:302,_RNvNtNtNtCs7xzLeE8dEzx_10lazy_image3ops5tests19preset_config_testss_18test_avatar_preset
FN:318,_RNvNtNtNtCs7xzLeE8dEzx_10lazy_image3ops5tests19preset_config_testss_18test_social_preset
FN:367,_RNvNtNtNtCs7xzLeE8dEzx_10lazy_image3ops5tests19preset_config_testss_19test_unknown_preset
FN:294,_RNvNtNtNtCs7xzLeE8dEzx_10lazy_image3ops5tests19preset_config_testss_21test_thumbnail_preset
FN:384,_RNvNtNtNtCs7xzLeE8dEzx_10lazy_image3ops5tests19preset_config_testss_25test_preset_new_with_none
FN:347,_RNvNtNtNtCs7xzLeE8dEzx_10lazy_image3ops5tests19preset_config_testss_26test_case_insensitive_hero
FN:337,_RNvNtNtNtCs7xzLeE8dEzx_10lazy_image3ops5tests19preset_config_testss_28test_case_insensitive_avatar
FN:357,_RNvNtNtNtCs7xzLeE8dEzx_10lazy_image3ops5tests19preset_config_testss_28test_case_insensitive_social
FN:326,_RNvNtNtNtCs7xzLeE8dEzx_10lazy_image3ops5tests19preset_config_testss_31test_case_insensitive_thumbnail
FN:179,_RNvNtNtNtCs7xzLeE8dEzx_10lazy_image3ops5tests19output_format_testss_14test_jpg_alias
FN:215,_RNvNtNtNtCs7xzLeE8dEzx_10lazy_image3ops5tests19output_format_testss_15test_png_format
FN:273,_RNvNtNtNtCs7xzLeE8dEzx_10lazy_image3ops5tests19output_format_testss_17test_empty_format
FN:280,_RNvNtNtNtCs7xzLeE8dEzx_10lazy_image3ops5tests19output_format_testss_18test_quality_range
FN:185,_RNvNtNtNtCs7xzLeE8dEzx_10lazy_image3ops5tests19output_format_testss_21test_jpg_with_quality
FN:203,_RNvNtNtNtCs7xzLeE8dEzx_10lazy_image3ops5tests19output_format_testss_22test_avif_with_quality
FN:167,_RNvNtNtNtCs7xzLeE8dEzx_10lazy_image3ops5tests19output_format_testss_22test_jpeg_with_quality
FN:191,_RNvNtNtNtCs7xzLeE8dEzx_10lazy_image3ops5tests19output_format_testss_22test_webp_with_quality
FN:259,_RNvNtNtNtCs7xzLeE8dEzx_10lazy_image3ops5tests19output_format_testss_23test_unsupported_format
FN:221,_RNvNtNtNtCs7xzLeE8dEzx_10lazy_image3ops5tests19output_format_testss_24test_png_ignores_quality
FN:209,_RNvNtNtNtCs7xzLeE8dEzx_10lazy_image3ops5tests19output_format_testss_25test_avif_default_quality
FN:234,_RNvNtNtNtCs7xzLeE8dEzx_10lazy_image3ops5tests19output_format_testss_25test_case_insensitive_jpg
FN:253,_RNvNtNtNtCs7xzLeE8dEzx_10lazy_image3ops5tests19output_format_testss_25test_case_insensitive_png
FN:173,_RNvNtNtNtCs7xzLeE8dEzx_10lazy_image3ops5tests19output_format_testss_25test_jpeg_default_quality
FN:197,_RNvNtNtNtCs7xzLeE8dEzx_10lazy_image3ops5tests19output_format_testss_25test_webp_default_quality
FN:247,_RNvNtNtNtCs7xzLeE8dEzx_10lazy_image3ops5tests19output_format_testss_26test_case_insensitive_avif
FN:227,_RNvNtNtNtCs7xzLeE8dEzx_10lazy_image3ops5tests19output_format_testss_26test_case_insensitive_jpeg
FN:240,_RNvNtNtNtCs7xzLeE8dEzx_10lazy_image3ops5tests19output_format_testss_26test_case_insensitive_webp
FN:266,_RNvNtNtNtCs7xzLeE8dEzx_10lazy_image3ops5tests19output_format_testss_27test_unsupported_format_bmp
FNDA:0,_RNvMNtCs2c7XeETP86L_10lazy_image3opsNtB2_12OutputFormat8from_str
FNDA:0,_RNvMs_NtCs2c7XeETP86L_10lazy_image3opsNtB4_12PresetConfig3get
FNDA:0,_RNvMs_NtCs2c7XeETP86L_10lazy_image3opsNtB4_12PresetConfig3new
FNDA:0,_RNvMs_NtCs2c7XeETP86L_10lazy_image3opsNtB4_12PresetConfig4hero
FNDA:0,_RNvMs_NtCs2c7XeETP86L_10lazy_image3opsNtB4_12PresetConfig6avatar
FNDA:0,_RNvMs_NtCs2c7XeETP86L_10lazy_image3opsNtB4_12PresetConfig6social
FNDA:0,_RNvMs_NtCs2c7XeETP86L_10lazy_image3opsNtB4_12PresetConfig9thumbnail
FNDA:27,_RNvMNtCs7xzLeE8dEzx_10lazy_image3opsNtB2_12OutputFormat8from_str
FNDA:21,_RNvMs_NtCs7xzLeE8dEzx_10lazy_image3opsNtB4_12PresetConfig3get
FNDA:19,_RNvMs_NtCs7xzLeE8dEzx_10lazy_image3opsNtB4_12PresetConfig3new
FNDA:4,_RNvMs_NtCs7xzLeE8dEzx_10lazy_image3opsNtB4_12PresetConfig4hero
FNDA:4,_RNvMs_NtCs7xzLeE8dEzx_10lazy_image3opsNtB4_12PresetConfig6avatar
FNDA:4,_RNvMs_NtCs7xzLeE8dEzx_10lazy_image3opsNtB4_12PresetConfig6social
FNDA:5,_RNvMs_NtCs7xzLeE8dEzx_10lazy_image3opsNtB4_12PresetConfig9thumbnail
FNDA:1,_RNvNtNtNtCs7xzLeE8dEzx_10lazy_image3ops5tests19preset_config_testss_15test_preset_new
FNDA:1,_RNvNtNtNtCs7xzLeE8dEzx_10lazy_image3ops5tests19preset_config_testss_16test_hero_preset
FNDA:1,_RNvNtNtNtCs7xzLeE8dEzx_10lazy_image3ops5tests19preset_config_testss_18test_avatar_preset
FNDA:1,_RNvNtNtNtCs7xzLeE8dEzx_10lazy_image3ops5tests19preset_config_testss_18test_social_preset
FNDA:1,_RNvNtNtNtCs7xzLeE8dEzx_10lazy_image3ops5tests19preset_config_testss_19test_unknown_preset
FNDA:1,_RNvNtNtNtCs7xzLeE8dEzx_10lazy_image3ops5tests19preset_config_testss_21test_thumbnail_preset
FNDA:1,_RNvNtNtNtCs7xzLeE8dEzx_10lazy_image3ops5tests19preset_config_testss_25test_preset_new_with_none
FNDA:1,_RNvNtNtNtCs7xzLeE8dEzx_10lazy_image3ops5tests19preset_config_testss_26test_case_insensitive_hero
FNDA:1,_RNvNtNtNtCs7xzLeE8dEzx_10lazy_image3ops5tests19preset_config_testss_28test_case_insensitive_avatar
FNDA:1,_RNvNtNtNtCs7xzLeE8dEzx_10lazy_image3ops5tests19preset_config_testss_28test_case_insensitive_social
FNDA:1,_RNvNtNtNtCs7xzLeE8dEzx_10lazy_image3ops5tests19preset_config_testss_31test_case_insensitive_thumbnail
FNDA:1,_RNvNtNtNtCs7xzLeE8dEzx_10lazy_image3ops5tests19output_format_testss_14test_jpg_alias
FNDA:1,_RNvNtNtNtCs7xzLeE8dEzx_10lazy_image3ops5tests19output_format_testss_15test_png_format
FNDA:1,_RNvNtNtNtCs7xzLeE8dEzx_10lazy_image3ops5tests19output_format_testss_17test_empty_format
FNDA:1,_RNvNtNtNtCs7xzLeE8dEzx_10lazy_image3ops5tests19output_format_testss_18test_quality_range
FNDA:1,_RNvNtNtNtCs7xzLeE8dEzx_10lazy_image3ops5tests19output_format_testss_21test_jpg_with_quality
FNDA:1,_RNvNtNtNtCs7xzLeE8dEzx_10lazy_image3ops5tests19output_format_testss_22test_avif_with_quality
FNDA:1,_RNvNtNtNtCs7xzLeE8dEzx_10lazy_image3ops5tests19output_format_testss_22test_jpeg_with_quality
FNDA:1,_RNvNtNtNtCs7xzLeE8dEzx_10lazy_image3ops5tests19output_format_testss_22test_webp_with_quality
FNDA:1,_RNvNtNtNtCs7xzLeE8dEzx_10lazy_image3ops5tests19output_format_testss_23test_unsupported_format
FNDA:1,_RNvNtNtNtCs7xzLeE8dEzx_10lazy_image3ops5tests19output_format_testss_24test_png_ignores_quality
FNDA:1,_RNvNtNtNtCs7xzLeE8dEzx_10lazy_image3ops5tests19output_format_testss_25test_avif_default_quality
FNDA:1,_RNvNtNtNtCs7xzLeE8dEzx_10lazy_image3ops5tests19output_format_testss_25test_case_insensitive_jpg
FNDA:1,_RNvNtNtNtCs7xzLeE8dEzx_10lazy_image3ops5tests19output_format_testss_25test_case_insensitive_png
FNDA:1,_RNvNtNtNtCs7xzLeE8dEzx_10lazy_image3ops5tests19output_format_testss_25test_jpeg_default_quality
FNDA:1,_RNvNtNtNtCs7xzLeE8dEzx_10lazy_image3ops5tests19output_format_testss_25test_webp_default_quality
FNDA:1,_RNvNtNtNtCs7xzLeE8dEzx_10lazy_image3ops5tests19output_format_testss_26test_case_insensitive_avif
FNDA:1,_RNvNtNtNtCs7xzLeE8dEzx_10lazy_image3ops5tests19output_format_testss_26test_case_insensitive_jpeg
FNDA:1,_RNvNtNtNtCs7xzLeE8dEzx_10lazy_image3ops5tests19output_format_testss_26test_case_insensitive_webp
FNDA:1,_RNvNtNtNtCs7xzLeE8dEzx_10lazy_image3ops5tests19output_format_testss_27test_unsupported_format_bmp
FNF:37
FNH:37
DA:73,27
DA:74,27
DA:75,27
DA:76,11
DA:77,11
DA:79,16
DA:80,12
DA:81,5
DA:82,5
DA:84,7
DA:85,4
DA:86,4
DA:88,3
DA:90,27
DA:111,19
DA:112,19
DA:113,19
DA:114,19
DA:115,19
DA:116,19
DA:117,19
DA:120,21
DA:121,21
DA:122,21
DA:123,16
DA:124,12
DA:125,8
DA:126,4
DA:128,21
DA:132,5
DA:133,5
DA:134,5
DA:138,4
DA:139,4
DA:140,4
DA:144,4
DA:145,4
DA:146,4
DA:150,4
DA:151,4
DA:152,4
DA:167,1
DA:168,1
DA:169,1
DA:170,1
DA:173,1
DA:174,1
DA:175,1
DA:176,1
DA:179,1
DA:180,1
DA:181,1
DA:182,1
DA:185,1
DA:186,1
DA:187,1
DA:188,1
DA:191,1
DA:192,1
DA:193,1
DA:194,1
DA:197,1
DA:198,1
DA:199,1
DA:200,1
DA:203,1
DA:204,1
DA:205,1
DA:206,1
DA:209,1
DA:210,1
DA:211,1
DA:212,1
DA:215,1
DA:216,1
DA:217,1
DA:218,1
DA:221,1
DA:222,1
DA:223,1
DA:224,1
DA:227,1
DA:228,1
DA:229,1
DA:230,1
DA:231,1
DA:234,1
DA:235,1
DA:236,1
DA:237,1
DA:240,1
DA:241,1
DA:242,1
DA:243,1
DA:244,1
DA:247,1
DA:248,1
DA:249,1
DA:250,1
DA:253,1
DA:254,1
DA:255,1
DA:256,1
DA:259,1
DA:260,1
DA:261,1
DA:262,1
DA:263,1
DA:266,1
DA:267,1
DA:268,1
DA:269,1
DA:270,1
DA:273,1
DA:274,1
DA:275,1
DA:276,1
DA:277,1
DA:280,1
DA:281,1
DA:282,1
DA:283,1
DA:285,1
DA:286,1
DA:287,1
DA:294,1
DA:295,1
DA:296,1
DA:297,1
DA:298,1
DA:299,1
DA:302,1
DA:303,1
DA:304,1
DA:305,1
DA:306,1
DA:307,1
DA:310,1
DA:311,1
DA:312,1
DA:313,1
DA:314,1
DA:315,1
DA:318,1
DA:319,1
DA:320,1
DA:321,1
DA:322,1
DA:323,1
DA:326,1
DA:327,1
DA:328,1
DA:329,1
DA:331,1
DA:332,1
DA:333,1
DA:334,1
DA:337,1
DA:338,1
DA:339,1
DA:341,1
DA:342,1
DA:343,1
DA:344,1
DA:347,1
DA:348,1
DA:349,1
DA:351,1
DA:352,1
DA:353,1
DA:354,1
DA:357,1
DA:358,1
DA:359,1
DA:361,1
DA:362,1
DA:363,1
DA:364,1
DA:367,1
DA:368,1
DA:369,1
DA:370,1
DA:371,1
DA:372,1
DA:375,1
DA:376,1
DA:377,1
DA:378,1
DA:379,1
DA:380,1
DA:381,1
DA:384,1
DA:385,1
DA:386,1
DA:387,1
DA:388,1
DA:389,1
BRF:0
BRH:0
LF:197
LH:197
end_of_record